

Microchip MPLAB XC8 Assembler V2.30 build 20200825195618 
                                                                                               Wed May 28 00:28:00 2025

Microchip MPLAB XC8 C Compiler v2.30 (Free license) build 20200825195618 Og1 
     1                           	processor	18F8722
     2                           	fnconf	rparam,??,?,0
     3                           	pagewidth 120
     4                           	opt	flic
     5                           	psect	idataCOMRAM,global,class=CODE,delta=1,noexec
     6                           	psect	idataBANK0,global,class=CODE,delta=1,noexec
     7                           	psect	cinit,global,reloc=2,class=CODE,delta=1
     8                           	psect	bssCOMRAM,global,class=COMRAM,space=1,delta=1,lowdata,noexec
     9                           	psect	dataCOMRAM,global,class=COMRAM,space=1,delta=1,lowdata,noexec
    10                           	psect	bssBANK0,global,class=BANK0,space=1,delta=1,lowdata,noexec
    11                           	psect	dataBANK0,global,class=BANK0,space=1,delta=1,lowdata,noexec
    12                           	psect	bssBANK1,global,class=BANK1,space=1,delta=1,lowdata,noexec
    13                           	psect	bssBANK2,global,class=BANK2,space=1,delta=1,lowdata,noexec
    14                           	psect	bssBANK3,global,class=BANK3,space=1,delta=1,lowdata,noexec
    15                           	psect	bssBIGRAM,global,class=BIGRAM,space=1,delta=1,noexec
    16                           	psect	cstackBANK2,global,class=BANK2,space=1,delta=1,lowdata,noexec
    17                           	psect	cstackBANK1,global,class=BANK1,space=1,delta=1,lowdata,noexec
    18                           	psect	cstackCOMRAM,global,class=COMRAM,space=1,delta=1,lowdata,noexec
    19                           	psect	text0,global,reloc=2,class=CODE,delta=1
    20                           	psect	text1,global,reloc=2,class=CODE,delta=1
    21                           	psect	text2,global,reloc=2,class=CODE,delta=1
    22                           	psect	text3,global,reloc=2,class=CODE,delta=1
    23                           	psect	text4,global,reloc=2,class=CODE,delta=1
    24                           	psect	text5,global,reloc=2,class=CODE,delta=1
    25                           	psect	text6,global,reloc=2,class=CODE,delta=1
    26                           	psect	text7,global,reloc=2,class=CODE,delta=1
    27                           	psect	text8,global,reloc=2,class=CODE,delta=1
    28                           	psect	text9,global,reloc=2,class=CODE,delta=1
    29                           	psect	text10,global,reloc=2,class=CODE,delta=1
    30                           	psect	text11,global,reloc=2,class=CODE,delta=1
    31                           	psect	text12,global,reloc=2,class=CODE,delta=1
    32                           	psect	text13,global,reloc=2,class=CODE,delta=1
    33                           	psect	text14,global,reloc=2,class=CODE,delta=1
    34                           	psect	text15,global,reloc=2,class=CODE,delta=1
    35                           	psect	text16,global,reloc=2,class=CODE,delta=1
    36                           	psect	text17,global,reloc=2,class=CODE,delta=1
    37                           	psect	text18,global,reloc=2,class=CODE,delta=1
    38                           	psect	text19,global,reloc=2,class=CODE,delta=1
    39                           	psect	text20,global,reloc=2,class=CODE,delta=1
    40                           	psect	text21,global,reloc=2,class=CODE,delta=1
    41                           	psect	text22,global,reloc=2,class=CODE,delta=1,inline
    42                           	psect	text23,global,reloc=2,class=CODE,delta=1,inline
    43                           	psect	text24,global,reloc=2,class=CODE,delta=1
    44                           	psect	text25,global,reloc=2,class=CODE,delta=1,group=1
    45                           	psect	text26,global,reloc=2,class=CODE,delta=1,group=1
    46                           	psect	text27,global,reloc=2,class=CODE,delta=1
    47                           	psect	text28,global,reloc=2,class=CODE,delta=1
    48                           	psect	text29,global,reloc=2,class=CODE,delta=1
    49                           	psect	text30,global,reloc=2,class=CODE,delta=1
    50                           	psect	text31,global,reloc=2,class=CODE,delta=1,group=1
    51                           	psect	text32,global,reloc=2,class=CODE,delta=1
    52                           	psect	intcode,global,reloc=2,class=CODE,delta=1
    53                           	psect	intcode_body,global,reloc=2,class=CODE,delta=1
    54                           	psect	text34,global,reloc=2,class=CODE,delta=1
    55                           	psect	text35,global,reloc=2,class=CODE,delta=1
    56                           	psect	text36,global,reloc=2,class=CODE,delta=1
    57                           	psect	text37,global,reloc=2,class=CODE,delta=1
    58                           	psect	text38,global,reloc=2,class=CODE,delta=1
    59                           	psect	text39,global,reloc=2,class=CODE,delta=1
    60                           	psect	intsave_regs,global,class=BIGRAM,space=1,delta=1,noexec
    61                           	psect	rparam,global,class=COMRAM,space=1,delta=1,noexec
    62                           	psect	temp,global,ovrld,common,class=COMRAM,space=1,delta=1
    63                           	psect	idloc,global,abs,ovrld,class=IDLOC,space=5,delta=1,noexec
    64                           	psect	config,global,abs,ovrld,class=CONFIG,space=4,delta=1,noexec
    65  0000                     
    66                           ; Version 2.20
    67                           ; Generated 12/02/2020 GMT
    68                           ; 
    69                           ; Copyright © 2020, Microchip Technology Inc. and its subsidiaries ("Microchip")
    70                           ; All rights reserved.
    71                           ; 
    72                           ; This software is developed by Microchip Technology Inc. and its subsidiaries ("Microch
      +                          ip").
    73                           ; 
    74                           ; Redistribution and use in source and binary forms, with or without modification, are
    75                           ; permitted provided that the following conditions are met:
    76                           ; 
    77                           ;     1. Redistributions of source code must retain the above copyright notice, this lis
      +                          t of
    78                           ;        conditions and the following disclaimer.
    79                           ; 
    80                           ;     2. Redistributions in binary form must reproduce the above copyright notice, this 
      +                          list
    81                           ;        of conditions and the following disclaimer in the documentation and/or other
    82                           ;        materials provided with the distribution.
    83                           ; 
    84                           ;     3. Microchip's name may not be used to endorse or promote products derived from th
      +                          is
    85                           ;        software without specific prior written permission.
    86                           ; 
    87                           ; THIS SOFTWARE IS PROVIDED BY MICROCHIP "AS IS" AND ANY EXPRESS OR IMPLIED WARRANTIES,
    88                           ; INCLUDING, BUT NOT LIMITED TO, THE IMPLIED WARRANTIES OF MERCHANTABILITY AND FITNESS F
      +                          OR
    89                           ; PURPOSE ARE DISCLAIMED.  IN NO EVENT SHALL MICROCHIP BE LIABLE FOR ANY DIRECT, INDIREC
      +                          T,
    90                           ; INCIDENTAL, SPECIAL, EXEMPLARY, OR CONSEQUENTIAL DAMAGES (INCLUDING BUT NOT LIMITED TO
    91                           ; PROCUREMENT OF SUBSTITUTE GOODS OR SERVICES; LOSS OF USE, DATA OR PROFITS; OR BUSINESS
    92                           ; INTERRUPTION) HOWSOEVER CAUSED AND ON ANY THEORY OF LIABILITY, WHETHER IN CONTRACT, ST
      +                          RICT
    93                           ; LIABILITY, OR TORT (INCLUDING NEGLIGENCE OR OTHERWISE) ARISING IN ANY WAY OUT OF THE U
      +                          SE OF
    94                           ; THIS SOFTWARE, EVEN IF ADVISED OF THE POSSIBILITY OF SUCH DAMAGE.
    95                           ; 
    96                           ; 
    97                           ; Code-generator required, PIC18F8722 Definitions
    98                           ; 
    99                           ; SFR Addresses
   100  0000                     
   101                           	psect	idataCOMRAM
   102  0029D4                     __pidataCOMRAM:
   103                           	callstack 0
   104                           
   105                           ;initializer for _total_empty_slots
   106  0029D4  0028               	dw	40
   107                           
   108                           ;initializer for _waiting
   109  0029D6  0001               	dw	1
   110                           
   111                           ;initializer for _level
   112  0029D8  41                 	db	65
   113                           
   114                           ;initializer for _prev_rb4
   115  0029D9  10                 	db	16
   116                           
   117                           	psect	idataBANK0
   118  00289E                     __pidataBANK0:
   119                           	callstack 0
   120                           
   121                           ;initializer for int_to_7segment@F5104
   122  00289E  003F               	dw	63
   123  0028A0  0006               	dw	6
   124  0028A2  005B               	dw	91
   125  0028A4  004F               	dw	79
   126  0028A6  0066               	dw	102
   127  0028A8  006D               	dw	109
   128  0028AA  007D               	dw	125
   129  0028AC  0007               	dw	7
   130  0028AE  007F               	dw	127
   131  0028B0  006F               	dw	111
   132                           
   133                           ;initializer for pop_msg_queue@F5058
   134  0028B2  0000               	dw	0
   135  0028B4  00                 	db	0
   136  0028B5  0000               	dw	0
   137  0028B7  58                 	db	88
   138  0028B8  00                 	db	0
   139  0028B9  00                 	db	0
   140                           
   141                           ;initializer for _empty_spaces
   142  0028BA  000A               	dw	10
   143  0028BC  000A               	dw	10
   144  0028BE  000A               	dw	10
   145  0028C0  000A               	dw	10
   146                           
   147                           ;initializer for _display_digits
   148  0028C2  003F               	dw	63
   149  0028C4  003F               	dw	63
   150  0028C6  003F               	dw	63
   151  0028C8  003F               	dw	63
   152                           
   153                           ;initializer for _display_total_money
   154  0028CA  0001               	dw	1
   155                           
   156                           ;initializer for _check_adc_flag
   157  0028CC  0001               	dw	1
   158                           
   159                           ;initializer for _adc_counter
   160  0028CE  000A               	dw	10
   161  0000                     _ADRESL	set	4035
   162  0000                     _ADRESH	set	4036
   163  0000                     _ADCON0bits	set	4034
   164  0000                     _ADCON2	set	4032
   165  0000                     _ADCON1	set	4033
   166  0000                     _ADCON0	set	4034
   167  0000                     _INTCON	set	4082
   168  0000                     _RCONbits	set	4048
   169  0000                     _T0CONbits	set	4053
   170  0000                     _T0CON	set	4053
   171  0000                     _SPBRG1	set	4015
   172  0000                     _SPBRGH1	set	3967
   173  0000                     _BAUDCON1bits	set	3966
   174  0000                     _RCSTA1bits	set	4011
   175  0000                     _LATJ	set	3985
   176  0000                     _LATH	set	3984
   177  0000                     _LATB	set	3978
   178  0000                     _TRISH	set	3993
   179  0000                     _TRISJ	set	3994
   180  0000                     _TRISB	set	3987
   181  0000                     _PORTB	set	3969
   182  0000                     _TMR0L	set	4054
   183  0000                     _TMR0H	set	4055
   184  0000                     _INTCONbits	set	4082
   185  0000                     _TXREG1	set	4013
   186  0000                     _TXSTA1bits	set	4012
   187  0000                     _RCREG1	set	4014
   188  0000                     _PIR1bits	set	3998
   189  0000                     _PIE1bits	set	3997
   190                           
   191                           ; #config settings
   192                           
   193                           	psect	cinit
   194  002242                     __pcinit:
   195                           	callstack 0
   196  002242                     start_initialization:
   197                           	callstack 0
   198  002242                     __initialization:
   199                           	callstack 0
   200                           
   201                           ; Initialize objects allocated to BANK0 (50 bytes)
   202                           ; load TBLPTR registers with __pidataBANK0
   203  002242  0E9E               	movlw	low __pidataBANK0
   204  002244  6EF6               	movwf	tblptrl,c
   205  002246  0E28               	movlw	high __pidataBANK0
   206  002248  6EF7               	movwf	tblptrh,c
   207  00224A  0E00               	movlw	low (__pidataBANK0 shr (0+16))
   208  00224C  6EF8               	movwf	tblptru,c
   209  00224E  EE00  F0CE         	lfsr	0,__pdataBANK0
   210  002252  EE10 F032          	lfsr	1,50
   211  002256                     copy_data0:
   212  002256  0009               	tblrd		*+
   213  002258  CFF5 FFEE          	movff	tablat,postinc0
   214  00225C  50E5               	movf	postdec1,w,c
   215  00225E  50E1               	movf	fsr1l,w,c
   216  002260  E1FA               	bnz	copy_data0
   217                           
   218                           ; Initialize objects allocated to COMRAM (6 bytes)
   219                           ; load TBLPTR registers with __pidataCOMRAM
   220  002262  0ED4               	movlw	low __pidataCOMRAM
   221  002264  6EF6               	movwf	tblptrl,c
   222  002266  0E29               	movlw	high __pidataCOMRAM
   223  002268  6EF7               	movwf	tblptrh,c
   224  00226A  0E00               	movlw	low (__pidataCOMRAM shr (0+16))
   225  00226C  6EF8               	movwf	tblptru,c
   226  00226E  EE00  F04D         	lfsr	0,__pdataCOMRAM
   227  002272  EE10 F006          	lfsr	1,6
   228  002276                     copy_data1:
   229  002276  0009               	tblrd		*+
   230  002278  CFF5 FFEE          	movff	tablat,postinc0
   231  00227C  50E5               	movf	postdec1,w,c
   232  00227E  50E1               	movf	fsr1l,w,c
   233  002280  E1FA               	bnz	copy_data1
   234                           
   235                           ; Clear objects allocated to BIGRAM (1304 bytes)
   236  002282  EE03  F080         	lfsr	0,__pbssBIGRAM
   237  002286  EE15 F018          	lfsr	1,1304
   238  00228A                     clear_0:
   239  00228A  6AEE               	clrf	postinc0,c
   240  00228C  50E5               	movf	postdec1,w,c
   241  00228E  50E1               	movf	fsr1l,w,c
   242  002290  E1FC               	bnz	clear_0
   243  002292  50E2               	movf	fsr1h,w,c
   244  002294  E1FA               	bnz	clear_0
   245                           
   246                           ; Clear objects allocated to BANK3 (128 bytes)
   247  002296  EE03  F000         	lfsr	0,__pbssBANK3
   248  00229A  0E80               	movlw	128
   249  00229C                     clear_1:
   250  00229C  6AEE               	clrf	postinc0,c
   251  00229E  06E8               	decf	wreg,f,c
   252  0022A0  E1FD               	bnz	clear_1
   253                           
   254                           ; Clear objects allocated to BANK2 (160 bytes)
   255  0022A2  EE02  F000         	lfsr	0,__pbssBANK2
   256  0022A6  0EA0               	movlw	160
   257  0022A8                     clear_2:
   258  0022A8  6AEE               	clrf	postinc0,c
   259  0022AA  06E8               	decf	wreg,f,c
   260  0022AC  E1FD               	bnz	clear_2
   261                           
   262                           ; Clear objects allocated to BANK1 (240 bytes)
   263  0022AE  EE01  F000         	lfsr	0,__pbssBANK1
   264  0022B2  0EF0               	movlw	240
   265  0022B4                     clear_3:
   266  0022B4  6AEE               	clrf	postinc0,c
   267  0022B6  06E8               	decf	wreg,f,c
   268  0022B8  E1FD               	bnz	clear_3
   269                           
   270                           ; Clear objects allocated to BANK0 (110 bytes)
   271  0022BA  EE00  F060         	lfsr	0,__pbssBANK0
   272  0022BE  0E6E               	movlw	110
   273  0022C0                     clear_4:
   274  0022C0  6AEE               	clrf	postinc0,c
   275  0022C2  06E8               	decf	wreg,f,c
   276  0022C4  E1FD               	bnz	clear_4
   277                           
   278                           ; Clear objects allocated to COMRAM (10 bytes)
   279  0022C6  EE00  F043         	lfsr	0,__pbssCOMRAM
   280  0022CA  0E0A               	movlw	10
   281  0022CC                     clear_5:
   282  0022CC  6AEE               	clrf	postinc0,c
   283  0022CE  06E8               	decf	wreg,f,c
   284  0022D0  E1FD               	bnz	clear_5
   285  0022D2                     end_of_initialization:
   286                           	callstack 0
   287  0022D2                     __end_of__initialization:
   288                           	callstack 0
   289  0022D2  9053               	bcf	int$flags,0,c	;clear compiler interrupt flag (level 1)
   290  0022D4  9253               	bcf	int$flags,1,c	;clear compiler interrupt flag (level 2)
   291  0022D6  0100               	movlb	0
   292  0022D8  EFF7  F00A         	goto	_main	;jump to C main() function
   293                           
   294                           	psect	bssCOMRAM
   295  000043                     __pbssCOMRAM:
   296                           	callstack 0
   297  000043                     _tail:
   298                           	callstack 0
   299  000043                     	ds	2
   300  000045                     _head:
   301                           	callstack 0
   302  000045                     	ds	2
   303  000047                     _reserveIndex:
   304                           	callstack 0
   305  000047                     	ds	2
   306  000049                     _general_counter:
   307                           	callstack 0
   308  000049                     	ds	2
   309  00004B                     _pkt_valid:
   310                           	callstack 0
   311  00004B                     	ds	1
   312  00004C                     _pkt_bodysize:
   313                           	callstack 0
   314  00004C                     	ds	1
   315                           
   316                           	psect	dataCOMRAM
   317  00004D                     __pdataCOMRAM:
   318                           	callstack 0
   319  00004D                     _total_empty_slots:
   320                           	callstack 0
   321  00004D                     	ds	2
   322  00004F                     _waiting:
   323                           	callstack 0
   324  00004F                     	ds	2
   325  000051                     _level:
   326                           	callstack 0
   327  000051                     	ds	1
   328  000052                     _prev_rb4:
   329                           	callstack 0
   330  000052                     	ds	1
   331                           
   332                           	psect	bssBANK0
   333  000060                     __pbssBANK0:
   334                           	callstack 0
   335  000060                     	ds	20
   336  000074                     _pkt_out:
   337                           	callstack 0
   338  000074                     	ds	20
   339  000088                     _pkt_body:
   340                           	callstack 0
   341  000088                     	ds	20
   342  00009C                     _tailX:
   343                           	callstack 0
   344  00009C                     	ds	2
   345  00009E                     _headX:
   346                           	callstack 0
   347  00009E                     	ds	2
   348  0000A0                     _empty_reserved_slots:
   349                           	callstack 0
   350  0000A0                     	ds	2
   351  0000A2                     _slot_number:
   352                           	callstack 0
   353  0000A2                     	ds	2
   354  0000A4                     _msg_queue_size:
   355                           	callstack 0
   356  0000A4                     	ds	2
   357  0000A6                     _tail_msg_queue:
   358                           	callstack 0
   359  0000A6                     	ds	2
   360  0000A8                     _head_msg_queue:
   361                           	callstack 0
   362  0000A8                     	ds	2
   363  0000AA                     _car_queue_size:
   364                           	callstack 0
   365  0000AA                     	ds	2
   366  0000AC                     _tail_car_queue:
   367                           	callstack 0
   368  0000AC                     	ds	2
   369  0000AE                     _head_car_queue:
   370                           	callstack 0
   371  0000AE                     	ds	2
   372  0000B0                     _curr_out:
   373                           	callstack 0
   374  0000B0                     	ds	2
   375  0000B2                     _read_adc_value:
   376                           	callstack 0
   377  0000B2                     	ds	2
   378  0000B4                     _display_level:
   379                           	callstack 0
   380  0000B4                     	ds	2
   381  0000B6                     _total_money:
   382                           	callstack 0
   383  0000B6                     	ds	2
   384  0000B8                     _digit:
   385                           	callstack 0
   386  0000B8                     	ds	2
   387  0000BA                     _update_display:
   388                           	callstack 0
   389  0000BA                     	ds	2
   390  0000BC                     _out_valid:
   391                           	callstack 0
   392  0000BC                     	ds	2
   393  0000BE                     _message_num:
   394                           	callstack 0
   395  0000BE                     	ds	2
   396  0000C0                     _message_counter:
   397                           	callstack 0
   398  0000C0                     	ds	2
   399  0000C2                     _park_spot:
   400                           	callstack 0
   401  0000C2                     	ds	2
   402  0000C4                     _licence_number:
   403                           	callstack 0
   404  0000C4                     	ds	2
   405  0000C6                     _finished:
   406                           	callstack 0
   407  0000C6                     	ds	2
   408  0000C8                     _adc_level:
   409                           	callstack 0
   410  0000C8                     	ds	2
   411  0000CA                     _pkt_outsize:
   412                           	callstack 0
   413  0000CA                     	ds	1
   414  0000CB                     _pkt_id:
   415                           	callstack 0
   416  0000CB                     	ds	1
   417  0000CC                     _pkt_state:
   418                           	callstack 0
   419  0000CC                     	ds	1
   420  0000CD                     _curr_message_state:
   421                           	callstack 0
   422  0000CD                     	ds	1
   423                           
   424                           	psect	dataBANK0
   425  0000CE                     __pdataBANK0:
   426                           	callstack 0
   427  0000CE                     int_to_7segment@F5104:
   428                           	callstack 0
   429  0000CE                     	ds	20
   430  0000E2                     pop_msg_queue@F5058:
   431                           	callstack 0
   432  0000E2                     	ds	8
   433  0000EA                     _empty_spaces:
   434                           	callstack 0
   435  0000EA                     	ds	8
   436  0000F2                     _display_digits:
   437                           	callstack 0
   438  0000F2                     	ds	8
   439  0000FA                     _display_total_money:
   440                           	callstack 0
   441  0000FA                     	ds	2
   442  0000FC                     _check_adc_flag:
   443                           	callstack 0
   444  0000FC                     	ds	2
   445  0000FE                     _adc_counter:
   446                           	callstack 0
   447  0000FE                     	ds	2
   448                           
   449                           	psect	bssBANK1
   450  000100                     __pbssBANK1:
   451                           	callstack 0
   452  000100                     _parkD:
   453                           	callstack 0
   454  000100                     	ds	60
   455  00013C                     _parkC:
   456                           	callstack 0
   457  00013C                     	ds	60
   458  000178                     _parkB:
   459                           	callstack 0
   460  000178                     	ds	60
   461  0001B4                     _parkA:
   462                           	callstack 0
   463  0001B4                     	ds	60
   464                           
   465                           	psect	bssBANK2
   466  000200                     __pbssBANK2:
   467                           	callstack 0
   468  000200                     _outbuf:
   469                           	callstack 0
   470  000200                     	ds	128
   471  000280                     _wait_queue:
   472                           	callstack 0
   473  000280                     	ds	32
   474                           
   475                           	psect	bssBANK3
   476  000300                     __pbssBANK3:
   477                           	callstack 0
   478  000300                     _inbuf:
   479                           	callstack 0
   480  000300                     	ds	128
   481                           
   482                           	psect	bssBIGRAM
   483  000380                     __pbssBIGRAM:
   484                           	callstack 0
   485  000380                     _msg_queue:
   486                           	callstack 0
   487  000380                     	ds	1024
   488  000780                     _reserveArr:
   489                           	callstack 0
   490  000780                     	ds	280
   491                           
   492                           	psect	cstackBANK2
   493  0002A0                     __pcstackBANK2:
   494                           	callstack 0
   495  0002A0                     int_to_7segment@numbers:
   496                           	callstack 0
   497                           
   498                           ; 20 bytes @ 0x0
   499  0002A0                     	ds	20
   500  0002B4                     int_to_7segment@digits:
   501                           	callstack 0
   502                           
   503                           ; 20 bytes @ 0x14
   504  0002B4                     	ds	20
   505  0002C8                     int_to_7segment@i:
   506                           	callstack 0
   507                           
   508                           ; 2 bytes @ 0x28
   509  0002C8                     	ds	2
   510                           
   511                           	psect	cstackBANK1
   512  0001F0                     __pcstackBANK1:
   513                           	callstack 0
   514  0001F0                     execute_command@plateNumber:
   515                           	callstack 0
   516                           
   517                           ; 2 bytes @ 0x0
   518  0001F0                     	ds	2
   519  0001F2                     execute_command@slotNumber:
   520                           	callstack 0
   521                           
   522                           ; 2 bytes @ 0x2
   523  0001F2                     	ds	2
   524  0001F4                     ??_execute_command:
   525                           
   526                           ; 1 bytes @ 0x4
   527  0001F4                     	ds	2
   528  0001F6                     ??_main:
   529                           
   530                           ; 1 bytes @ 0x6
   531  0001F6                     	ds	2
   532  0001F8                     main@empty:
   533                           	callstack 0
   534                           
   535                           ; 2 bytes @ 0x8
   536  0001F8                     	ds	2
   537  0001FA                     main@result:
   538                           	callstack 0
   539                           
   540                           ; 2 bytes @ 0xA
   541  0001FA                     	ds	2
   542                           
   543                           	psect	cstackCOMRAM
   544  000001                     __pcstackCOMRAM:
   545                           	callstack 0
   546  000001                     ??_buf_isempty:
   547  000001                     i2buf_push@buf:
   548                           	callstack 0
   549                           
   550                           ; 1 bytes @ 0x0
   551  000001                     	ds	1
   552  000002                     ??i2_buf_push:
   553                           
   554                           ; 1 bytes @ 0x1
   555  000002                     	ds	1
   556  000003                     buf_isempty@buf:
   557                           	callstack 0
   558                           
   559                           ; 1 bytes @ 0x2
   560  000003                     	ds	1
   561  000004                     ??_buf_pop:
   562  000004                     i2buf_push@v:
   563                           	callstack 0
   564                           
   565                           ; 1 bytes @ 0x3
   566  000004                     	ds	1
   567  000005                     
   568                           ; 1 bytes @ 0x4
   569  000005                     	ds	1
   570  000006                     buf_pop@v:
   571                           	callstack 0
   572                           
   573                           ; 1 bytes @ 0x5
   574  000006                     	ds	1
   575  000007                     buf_pop@buf:
   576                           	callstack 0
   577                           
   578                           ; 1 bytes @ 0x6
   579  000007                     	ds	1
   580  000008                     ??_high_priority_isr:
   581                           
   582                           ; 1 bytes @ 0x7
   583  000008                     	ds	4
   584  00000C                     high_priority_isr@portb:
   585                           	callstack 0
   586                           
   587                           ; 1 bytes @ 0xB
   588  00000C                     	ds	1
   589  00000D                     ??_packet_task:
   590  00000D                     ??_set_digit_pin:
   591  00000D                     ?_level_to_index:
   592                           	callstack 0
   593  00000D                     ?_pop_car_queue:
   594                           	callstack 0
   595  00000D                     ?___wmul:
   596                           	callstack 0
   597  00000D                     ?___awdiv:
   598                           	callstack 0
   599  00000D                     ?_pop_msg_queue:
   600                           	callstack 0
   601  00000D                     buf_push@buf:
   602                           	callstack 0
   603  00000D                     push_car_queue@licence_num:
   604                           	callstack 0
   605  00000D                     ___wmul@multiplier:
   606                           	callstack 0
   607  00000D                     ___awdiv@dividend:
   608                           	callstack 0
   609  00000D                     push_msg_queue@msg:
   610                           	callstack 0
   611                           
   612                           ; 8 bytes @ 0xC
   613  00000D                     	ds	1
   614  00000E                     ??_buf_push:
   615                           
   616                           ; 1 bytes @ 0xD
   617  00000E                     	ds	1
   618  00000F                     ??_level_to_index:
   619  00000F                     ??_push_car_queue:
   620  00000F                     ??_pop_car_queue:
   621  00000F                     packet_task@v:
   622                           	callstack 0
   623  00000F                     ___wmul@multiplicand:
   624                           	callstack 0
   625  00000F                     ___awdiv@divisor:
   626                           	callstack 0
   627                           
   628                           ; 2 bytes @ 0xE
   629  00000F                     	ds	1
   630  000010                     buf_push@v:
   631                           	callstack 0
   632                           
   633                           ; 1 bytes @ 0xF
   634  000010                     	ds	1
   635  000011                     ??_fill_outbuffer:
   636  000011                     level_to_index@level_char:
   637                           	callstack 0
   638  000011                     ___awdiv@counter:
   639                           	callstack 0
   640  000011                     pop_car_queue@licence:
   641                           	callstack 0
   642  000011                     ___wmul@product:
   643                           	callstack 0
   644                           
   645                           ; 2 bytes @ 0x10
   646  000011                     	ds	1
   647  000012                     ___awdiv@sign:
   648                           	callstack 0
   649                           
   650                           ; 1 bytes @ 0x11
   651  000012                     	ds	1
   652  000013                     licence_to_int@b:
   653                           	callstack 0
   654  000013                     park_spot_to_int@b:
   655                           	callstack 0
   656  000013                     init_parking_lots@i:
   657                           	callstack 0
   658  000013                     ___awdiv@quotient:
   659                           	callstack 0
   660                           
   661                           ; 2 bytes @ 0x12
   662  000013                     	ds	1
   663  000014                     ??_park_spot_to_int:
   664  000014                     licence_to_int@c:
   665                           	callstack 0
   666  000014                     fill_outbuffer@i:
   667                           	callstack 0
   668                           
   669                           ; 2 bytes @ 0x13
   670  000014                     	ds	1
   671  000015                     ??_licence_to_int:
   672  000015                     ??_pop_msg_queue:
   673  000015                     ??_push_msg_queue:
   674  000015                     ?_calculateFee:
   675                           	callstack 0
   676  000015                     ?___awmod:
   677                           	callstack 0
   678  000015                     calculateFee@entranceTime:
   679                           	callstack 0
   680  000015                     ___awmod@dividend:
   681                           	callstack 0
   682                           
   683                           ; 2 bytes @ 0x14
   684  000015                     	ds	1
   685  000016                     fill_outbuffer@i_776:
   686                           	callstack 0
   687                           
   688                           ; 2 bytes @ 0x15
   689  000016                     	ds	1
   690  000017                     push_msg_queue@next_tail:
   691                           	callstack 0
   692  000017                     calculateFee@difference:
   693                           	callstack 0
   694  000017                     ___awmod@divisor:
   695                           	callstack 0
   696  000017                     pop_msg_queue@empty:
   697                           	callstack 0
   698                           
   699                           ; 8 bytes @ 0x16
   700  000017                     	ds	1
   701  000018                     park_spot_to_int@a:
   702                           	callstack 0
   703                           
   704                           ; 1 bytes @ 0x17
   705  000018                     	ds	1
   706  000019                     licence_to_int@a:
   707                           	callstack 0
   708  000019                     ___awmod@counter:
   709                           	callstack 0
   710  000019                     park_the_car@carToPark:
   711                           	callstack 0
   712  000019                     reserve_the_lot@carToReserve:
   713                           	callstack 0
   714  000019                     exit@carToExit:
   715                           	callstack 0
   716                           
   717                           ; 2 bytes @ 0x18
   718  000019                     	ds	1
   719  00001A                     ___awmod@sign:
   720                           	callstack 0
   721                           
   722                           ; 1 bytes @ 0x19
   723  00001A                     	ds	1
   724  00001B                     ??_park_the_car:
   725  00001B                     ??_exit:
   726  00001B                     ?_int_to_char:
   727                           	callstack 0
   728  00001B                     reserve_the_lot@slotNumber:
   729                           	callstack 0
   730  00001B                     int_to_char@val:
   731                           	callstack 0
   732  00001B                     int_to_7segment@number:
   733                           	callstack 0
   734                           
   735                           ; 2 bytes @ 0x1A
   736  00001B                     	ds	2
   737  00001D                     ??_reserve_the_lot:
   738  00001D                     ??_int_to_7segment:
   739  00001D                     park_the_car@flag:
   740                           	callstack 0
   741  00001D                     exit@fee:
   742                           	callstack 0
   743  00001D                     int_to_char@divider:
   744                           	callstack 0
   745                           
   746                           ; 2 bytes @ 0x1C
   747  00001D                     	ds	2
   748  00001F                     exit@entranceTime:
   749                           	callstack 0
   750  00001F                     pop_msg_queue@m:
   751                           	callstack 0
   752  00001F                     park_the_car@msg:
   753                           	callstack 0
   754                           
   755                           ; 8 bytes @ 0x1E
   756  00001F                     	ds	2
   757  000021                     reserve_the_lot@successful_reservation:
   758                           	callstack 0
   759  000021                     exit@msg:
   760                           	callstack 0
   761                           
   762                           ; 8 bytes @ 0x20
   763  000021                     	ds	2
   764  000023                     reserve_the_lot@msg:
   765                           	callstack 0
   766                           
   767                           ; 8 bytes @ 0x22
   768  000023                     	ds	4
   769  000027                     ??_send_packet:
   770  000027                     park_the_car@msg_850:
   771                           	callstack 0
   772                           
   773                           ; 8 bytes @ 0x26
   774  000027                     	ds	2
   775  000029                     send_packet@msg:
   776                           	callstack 0
   777  000029                     exit@msg_884:
   778                           	callstack 0
   779                           
   780                           ; 8 bytes @ 0x28
   781  000029                     	ds	6
   782  00002F                     park_the_car@i:
   783                           	callstack 0
   784                           
   785                           ; 2 bytes @ 0x2E
   786  00002F                     	ds	2
   787  000031                     park_the_car@i_846:
   788                           	callstack 0
   789  000031                     exit@popped_car:
   790                           	callstack 0
   791                           
   792                           ; 2 bytes @ 0x30
   793  000031                     	ds	2
   794  000033                     park_the_car@i_847:
   795                           	callstack 0
   796  000033                     exit@i:
   797                           	callstack 0
   798                           
   799                           ; 2 bytes @ 0x32
   800  000033                     	ds	2
   801  000035                     park_the_car@i_848:
   802                           	callstack 0
   803  000035                     exit@space_msg:
   804                           	callstack 0
   805                           
   806                           ; 8 bytes @ 0x34
   807  000035                     	ds	2
   808  000037                     park_the_car@i_849:
   809                           	callstack 0
   810                           
   811                           ; 2 bytes @ 0x36
   812  000037                     	ds	6
   813  00003D                     exit@exit_car_level:
   814                           	callstack 0
   815                           
   816                           ; 1 bytes @ 0x3C
   817  00003D                     	ds	1
   818  00003E                     exit@exit_car_slot:
   819                           	callstack 0
   820                           
   821                           ; 2 bytes @ 0x3D
   822  00003E                     	ds	2
   823  000040                     exit@i_881:
   824                           	callstack 0
   825                           
   826                           ; 2 bytes @ 0x3F
   827  000040                     	ds	2
   828  000042                     execute_command@message:
   829                           	callstack 0
   830                           
   831                           ; 1 bytes @ 0x41
   832  000042                     	ds	1
   833  000043                     
   834                           ; 1 bytes @ 0x42
   835 ;;
   836 ;;Main: autosize = 0, tempsize = 2, incstack = 0, save=0
   837 ;;
   838 ;; *************** function _main *****************
   839 ;; Defined at:
   840 ;;		line 948 in file "main.c"
   841 ;; Parameters:    Size  Location     Type
   842 ;;		None
   843 ;; Auto vars:     Size  Location     Type
   844 ;;  empty           2    8[BANK1 ] int 
   845 ;;  result          2   10[BANK1 ] unsigned short 
   846 ;; Return value:  Size  Location     Type
   847 ;;                  1    wreg      void 
   848 ;; Registers used:
   849 ;;		wreg, fsr0l, fsr0h, fsr1l, fsr1h, fsr2l, fsr2h, status,2, status,0, prodl, prodh, cstack
   850 ;; Tracked objects:
   851 ;;		On entry : 0/0
   852 ;;		On exit  : 0/0
   853 ;;		Unchanged: 0/0
   854 ;; Data sizes:     COMRAM   BANK0   BANK1   BANK2   BANK3   BANK4   BANK5   BANK6   BANK7   BANK8   BANK9  BANK10  BANK1
      +1  BANK12  BANK13  BANK14  BANK15
   855 ;;      Params:         0       0       0       0       0       0       0       0       0       0       0       0       
      +0       0       0       0       0
   856 ;;      Locals:         0       0       4       0       0       0       0       0       0       0       0       0       
      +0       0       0       0       0
   857 ;;      Temps:          0       0       2       0       0       0       0       0       0       0       0       0       
      +0       0       0       0       0
   858 ;;      Totals:         0       0       6       0       0       0       0       0       0       0       0       0       
      +0       0       0       0       0
   859 ;;Total ram usage:        6 bytes
   860 ;; Hardware stack levels required when called:    9
   861 ;; This function calls:
   862 ;;		_init_adc
   863 ;;		_init_parking_lots
   864 ;;		_init_ports
   865 ;;		_init_serial
   866 ;;		_init_timer_and_pie
   867 ;;		_int_to_7segment
   868 ;;		_level_to_index
   869 ;;		_output_task
   870 ;;		_packet_task
   871 ;;		_read_packet
   872 ;;		_send_empty_spaces_packet
   873 ;;		_send_packet
   874 ;;		_set_digit_pin
   875 ;; This function is called by:
   876 ;;		Startup code after reset
   877 ;; This function uses a non-reentrant model
   878 ;;
   879                           
   880                           	psect	text0
   881  0015EE                     __ptext0:
   882                           	callstack 0
   883  0015EE                     _main:
   884                           	callstack 22
   885  0015EE                     
   886                           ;main.c: 949:     init_parking_lots();
   887  0015EE  ECF2  F00C         	call	_init_parking_lots	;wreg free
   888  0015F2                     
   889                           ;main.c: 950:     init_timer_and_pie();
   890  0015F2  EC7F  F014         	call	_init_timer_and_pie	;wreg free
   891  0015F6                     
   892                           ;main.c: 951:     init_serial();
   893  0015F6  ECBB  F014         	call	_init_serial	;wreg free
   894  0015FA                     
   895                           ;main.c: 952:     init_ports();
   896  0015FA  ECC8  F014         	call	_init_ports	;wreg free
   897  0015FE                     
   898                           ;main.c: 953:     init_adc();
   899  0015FE  ECD5  F014         	call	_init_adc	;wreg free
   900  001602                     l4505:
   901                           
   902                           ;main.c: 956:         packet_task();
   903  001602  EC43  F00E         	call	_packet_task	;wreg free
   904  001606                     
   905                           ;main.c: 957:         read_packet();
   906  001606  EC0A  F00C         	call	_read_packet	;wreg free
   907  00160A                     
   908                           ;main.c: 958:         if (waiting == 0) {
   909  00160A  504F               	movf	_waiting^0,w,c
   910  00160C  1050               	iorwf	(_waiting+1)^0,w,c
   911  00160E  A4D8               	btfss	status,2,c
   912  001610  EF0C  F00B         	goto	u4241
   913  001614  EF0E  F00B         	goto	u4240
   914  001618                     u4241:
   915  001618  EF10  F00B         	goto	l4513
   916  00161C                     u4240:
   917  00161C                     
   918                           ;main.c: 959:             output_task();
   919  00161C  EC18  F014         	call	_output_task	;wreg free
   920  001620                     l4513:
   921                           
   922                           ;main.c: 962:         if (waiting == 0 && message_counter >= 20) {
   923  001620  504F               	movf	_waiting^0,w,c
   924  001622  1050               	iorwf	(_waiting+1)^0,w,c
   925  001624  A4D8               	btfss	status,2,c
   926  001626  EF17  F00B         	goto	u4251
   927  00162A  EF19  F00B         	goto	u4250
   928  00162E                     u4251:
   929  00162E  EF40  F00B         	goto	l4525
   930  001632                     u4250:
   931  001632  0100               	movlb	0	; () banked
   932  001634  BFC1               	btfsc	(_message_counter+1)& (0+255),7,b
   933  001636  EF26  F00B         	goto	u4261
   934  00163A  51C1               	movf	(_message_counter+1)& (0+255),w,b
   935  00163C  E109               	bnz	u4260
   936  00163E  0E14               	movlw	20
   937  001640  5DC0               	subwf	_message_counter& (0+255),w,b
   938  001642  A0D8               	btfss	status,0,c
   939  001644  EF26  F00B         	goto	u4261
   940  001648  EF28  F00B         	goto	u4260
   941  00164C                     u4261:
   942  00164C  EF40  F00B         	goto	l4525
   943  001650                     u4260:
   944  001650                     
   945                           ; BSR set to: 0
   946                           ;main.c: 963:             if (msg_queue_size > 0) {
   947  001650  BFA5               	btfsc	(_msg_queue_size+1)& (0+255),7,b
   948  001652  EF33  F00B         	goto	u4271
   949  001656  51A5               	movf	(_msg_queue_size+1)& (0+255),w,b
   950  001658  E108               	bnz	u4270
   951  00165A  05A4               	decf	_msg_queue_size& (0+255),w,b
   952  00165C  A0D8               	btfss	status,0,c
   953  00165E  EF33  F00B         	goto	u4271
   954  001662  EF35  F00B         	goto	u4270
   955  001666                     u4271:
   956  001666  EF39  F00B         	goto	l4521
   957  00166A                     u4270:
   958  00166A                     
   959                           ; BSR set to: 0
   960                           ;main.c: 964:                 send_packet();
   961  00166A  EC56  F009         	call	_send_packet	;wreg free
   962                           
   963                           ;main.c: 965:             }
   964  00166E  EF3B  F00B         	goto	l4523
   965  001672                     l4521:
   966                           
   967                           ; BSR set to: 0
   968                           ;main.c: 967:                 send_empty_spaces_packet();
   969  001672  EC9E  F013         	call	_send_empty_spaces_packet	;wreg free
   970  001676                     l4523:
   971                           
   972                           ;main.c: 969:             message_counter = 0;
   973  001676  0E00               	movlw	0
   974  001678  0100               	movlb	0	; () banked
   975  00167A  6FC1               	movwf	(_message_counter+1)& (0+255),b
   976  00167C  0E00               	movlw	0
   977  00167E  6FC0               	movwf	_message_counter& (0+255),b
   978  001680                     l4525:
   979                           
   980                           ;main.c: 972:         if (check_adc_flag) {
   981  001680  0100               	movlb	0	; () banked
   982  001682  51FC               	movf	_check_adc_flag& (0+255),w,b
   983  001684  11FD               	iorwf	(_check_adc_flag+1)& (0+255),w,b
   984  001686  B4D8               	btfsc	status,2,c
   985  001688  EF48  F00B         	goto	u4281
   986  00168C  EF4A  F00B         	goto	u4280
   987  001690                     u4281:
   988  001690  EF4F  F00B         	goto	l4531
   989  001694                     u4280:
   990  001694                     
   991                           ; BSR set to: 0
   992                           ;main.c: 973:             check_adc_flag = 0;
   993  001694  0E00               	movlw	0
   994  001696  6FFD               	movwf	(_check_adc_flag+1)& (0+255),b
   995  001698  0E00               	movlw	0
   996  00169A  6FFC               	movwf	_check_adc_flag& (0+255),b
   997  00169C                     
   998                           ; BSR set to: 0
   999                           ;main.c: 974:             ADCON0bits.GO = 1;
  1000  00169C  82C2               	bsf	194,1,c	;volatile
  1001  00169E                     l4531:
  1002                           
  1003                           ; BSR set to: 0
  1004                           ;main.c: 977:         if (read_adc_value) {
  1005  00169E  51B2               	movf	_read_adc_value& (0+255),w,b
  1006  0016A0  11B3               	iorwf	(_read_adc_value+1)& (0+255),w,b
  1007  0016A2  B4D8               	btfsc	status,2,c
  1008  0016A4  EF56  F00B         	goto	u4291
  1009  0016A8  EF58  F00B         	goto	u4290
  1010  0016AC                     u4291:
  1011  0016AC  EFC9  F00B         	goto	l4559
  1012  0016B0                     u4290:
  1013  0016B0                     
  1014                           ; BSR set to: 0
  1015                           ;main.c: 978:             read_adc_value = 0;
  1016  0016B0  0E00               	movlw	0
  1017  0016B2  6FB3               	movwf	(_read_adc_value+1)& (0+255),b
  1018  0016B4  0E00               	movlw	0
  1019  0016B6  6FB2               	movwf	_read_adc_value& (0+255),b
  1020  0016B8                     
  1021                           ; BSR set to: 0
  1022                           ;main.c: 979:             uint16_t result = (ADRESH << 8) | ADRESL;
  1023  0016B8  50C3               	movf	195,w,c	;volatile
  1024  0016BA  CFC4 F1F6          	movff	4036,??_main	;volatile
  1025  0016BE  0101               	movlb	1	; () banked
  1026  0016C0  6BF7               	clrf	(??_main+1)& (0+255),b
  1027  0016C2  C1F6  F1F7         	movff	??_main,??_main+1
  1028  0016C6  6BF6               	clrf	??_main& (0+255),b
  1029  0016C8  11F6               	iorwf	??_main& (0+255),w,b
  1030  0016CA  6FFA               	movwf	main@result& (0+255),b
  1031  0016CC  51F7               	movf	(??_main+1)& (0+255),w,b
  1032  0016CE  6FFB               	movwf	(main@result+1)& (0+255),b
  1033  0016D0                     
  1034                           ; BSR set to: 1
  1035                           ;main.c: 981:             if (result >= 0 && result < 256) display_level = level_to_inde
      +                          x('A');
  1036  0016D0  05FB               	decf	(main@result+1)& (0+255),w,b
  1037  0016D2  B0D8               	btfsc	status,0,c
  1038  0016D4  EF6E  F00B         	goto	u4301
  1039  0016D8  EF70  F00B         	goto	u4300
  1040  0016DC                     u4301:
  1041  0016DC  EF79  F00B         	goto	l4541
  1042  0016E0                     u4300:
  1043  0016E0                     
  1044                           ; BSR set to: 1
  1045  0016E0  0E41               	movlw	65
  1046  0016E2  ECD0  F012         	call	_level_to_index
  1047  0016E6  C00D  F0B4         	movff	?_level_to_index,_display_level
  1048  0016EA  C00E  F0B5         	movff	?_level_to_index+1,_display_level+1
  1049  0016EE  EFC9  F00B         	goto	l4559
  1050  0016F2                     l4541:
  1051                           
  1052                           ; BSR set to: 1
  1053  0016F2  05FB               	decf	(main@result+1)& (0+255),w,b
  1054  0016F4  A0D8               	btfss	status,0,c
  1055  0016F6  EF7F  F00B         	goto	u4311
  1056  0016FA  EF81  F00B         	goto	u4310
  1057  0016FE                     u4311:
  1058  0016FE  EF93  F00B         	goto	l4547
  1059  001702                     u4310:
  1060  001702                     
  1061                           ; BSR set to: 1
  1062  001702  0E02               	movlw	2
  1063  001704  5DFB               	subwf	(main@result+1)& (0+255),w,b
  1064  001706  B0D8               	btfsc	status,0,c
  1065  001708  EF88  F00B         	goto	u4321
  1066  00170C  EF8A  F00B         	goto	u4320
  1067  001710                     u4321:
  1068  001710  EF93  F00B         	goto	l4547
  1069  001714                     u4320:
  1070  001714                     
  1071                           ; BSR set to: 1
  1072  001714  0E42               	movlw	66
  1073  001716  ECD0  F012         	call	_level_to_index
  1074  00171A  C00D  F0B4         	movff	?_level_to_index,_display_level
  1075  00171E  C00E  F0B5         	movff	?_level_to_index+1,_display_level+1
  1076  001722  EFC9  F00B         	goto	l4559
  1077  001726                     l4547:
  1078                           
  1079                           ; BSR set to: 1
  1080  001726  0E02               	movlw	2
  1081  001728  5DFB               	subwf	(main@result+1)& (0+255),w,b
  1082  00172A  A0D8               	btfss	status,0,c
  1083  00172C  EF9A  F00B         	goto	u4331
  1084  001730  EF9C  F00B         	goto	u4330
  1085  001734                     u4331:
  1086  001734  EFAE  F00B         	goto	l4553
  1087  001738                     u4330:
  1088  001738                     
  1089                           ; BSR set to: 1
  1090  001738  0E03               	movlw	3
  1091  00173A  5DFB               	subwf	(main@result+1)& (0+255),w,b
  1092  00173C  B0D8               	btfsc	status,0,c
  1093  00173E  EFA3  F00B         	goto	u4341
  1094  001742  EFA5  F00B         	goto	u4340
  1095  001746                     u4341:
  1096  001746  EFAE  F00B         	goto	l4553
  1097  00174A                     u4340:
  1098  00174A                     
  1099                           ; BSR set to: 1
  1100  00174A  0E43               	movlw	67
  1101  00174C  ECD0  F012         	call	_level_to_index
  1102  001750  C00D  F0B4         	movff	?_level_to_index,_display_level
  1103  001754  C00E  F0B5         	movff	?_level_to_index+1,_display_level+1
  1104  001758  EFC9  F00B         	goto	l4559
  1105  00175C                     l4553:
  1106                           
  1107                           ; BSR set to: 1
  1108  00175C  0E03               	movlw	3
  1109  00175E  5DFB               	subwf	(main@result+1)& (0+255),w,b
  1110  001760  A0D8               	btfss	status,0,c
  1111  001762  EFB5  F00B         	goto	u4351
  1112  001766  EFB7  F00B         	goto	u4350
  1113  00176A                     u4351:
  1114  00176A  EFC9  F00B         	goto	l442
  1115  00176E                     u4350:
  1116  00176E                     
  1117                           ; BSR set to: 1
  1118  00176E  0E04               	movlw	4
  1119  001770  5DFB               	subwf	(main@result+1)& (0+255),w,b
  1120  001772  B0D8               	btfsc	status,0,c
  1121  001774  EFBE  F00B         	goto	u4361
  1122  001778  EFC0  F00B         	goto	u4360
  1123  00177C                     u4361:
  1124  00177C  EFC9  F00B         	goto	l442
  1125  001780                     u4360:
  1126  001780                     
  1127                           ; BSR set to: 1
  1128  001780  0E44               	movlw	68
  1129  001782  ECD0  F012         	call	_level_to_index
  1130  001786  C00D  F0B4         	movff	?_level_to_index,_display_level
  1131  00178A  C00E  F0B5         	movff	?_level_to_index+1,_display_level+1
  1132  00178E  EFC9  F00B         	goto	l4559
  1133  001792                     l442:
  1134  001792                     l4559:
  1135                           
  1136                           ;main.c: 987:         if (waiting == 0 && update_display == 1) {
  1137  001792  504F               	movf	_waiting^0,w,c
  1138  001794  1050               	iorwf	(_waiting+1)^0,w,c
  1139  001796  A4D8               	btfss	status,2,c
  1140  001798  EFD0  F00B         	goto	u4371
  1141  00179C  EFD2  F00B         	goto	u4370
  1142  0017A0                     u4371:
  1143  0017A0  EF01  F00B         	goto	l4505
  1144  0017A4                     u4370:
  1145  0017A4  0100               	movlb	0	; () banked
  1146  0017A6  05BA               	decf	_update_display& (0+255),w,b
  1147  0017A8  11BB               	iorwf	(_update_display+1)& (0+255),w,b
  1148  0017AA  A4D8               	btfss	status,2,c
  1149  0017AC  EFDA  F00B         	goto	u4381
  1150  0017B0  EFDC  F00B         	goto	u4380
  1151  0017B4                     u4381:
  1152  0017B4  EF01  F00B         	goto	l4505
  1153  0017B8                     u4380:
  1154  0017B8                     
  1155                           ; BSR set to: 0
  1156                           ;main.c: 988:             update_display = 0;
  1157  0017B8  0E00               	movlw	0
  1158  0017BA  6FBB               	movwf	(_update_display+1)& (0+255),b
  1159  0017BC  0E00               	movlw	0
  1160  0017BE  6FBA               	movwf	_update_display& (0+255),b
  1161  0017C0                     
  1162                           ; BSR set to: 0
  1163                           ;main.c: 989:             if (display_total_money) {
  1164  0017C0  51FA               	movf	_display_total_money& (0+255),w,b
  1165  0017C2  11FB               	iorwf	(_display_total_money+1)& (0+255),w,b
  1166  0017C4  B4D8               	btfsc	status,2,c
  1167  0017C6  EFE7  F00B         	goto	u4391
  1168  0017CA  EFE9  F00B         	goto	u4390
  1169  0017CE                     u4391:
  1170  0017CE  EFF1  F00B         	goto	l4569
  1171  0017D2                     u4390:
  1172  0017D2                     
  1173                           ; BSR set to: 0
  1174                           ;main.c: 990:                 int_to_7segment(total_money);
  1175  0017D2  C0B6  F01B         	movff	_total_money,int_to_7segment@number
  1176  0017D6  C0B7  F01C         	movff	_total_money+1,int_to_7segment@number+1
  1177  0017DA  ECCD  F00E         	call	_int_to_7segment	;wreg free
  1178                           
  1179                           ;main.c: 991:             }
  1180  0017DE  EF04  F00C         	goto	l4573
  1181  0017E2                     l4569:
  1182                           
  1183                           ; BSR set to: 0
  1184                           ;main.c: 993:                 int empty = empty_spaces[display_level];
  1185  0017E2  90D8               	bcf	status,0,c
  1186  0017E4  35B4               	rlcf	_display_level& (0+255),w,b
  1187  0017E6  6ED9               	movwf	fsr2l,c
  1188  0017E8  35B5               	rlcf	(_display_level+1)& (0+255),w,b
  1189  0017EA  6EDA               	movwf	fsr2h,c
  1190  0017EC  0EEA               	movlw	low _empty_spaces
  1191  0017EE  26D9               	addwf	fsr2l,f,c
  1192  0017F0  0E00               	movlw	high _empty_spaces
  1193  0017F2  22DA               	addwfc	fsr2h,f,c
  1194  0017F4  CFDE F1F8          	movff	postinc2,main@empty
  1195  0017F8  CFDD F1F9          	movff	postdec2,main@empty+1
  1196  0017FC                     
  1197                           ; BSR set to: 0
  1198                           ;main.c: 994:                 int_to_7segment(empty);
  1199  0017FC  C1F8  F01B         	movff	main@empty,int_to_7segment@number
  1200  001800  C1F9  F01C         	movff	main@empty+1,int_to_7segment@number+1
  1201  001804  ECCD  F00E         	call	_int_to_7segment	;wreg free
  1202  001808                     l4573:
  1203                           
  1204                           ;main.c: 996:             set_digit_pin();
  1205  001808  EC52  F012         	call	_set_digit_pin	;wreg free
  1206  00180C  EF01  F00B         	goto	l4505
  1207  001810  EF07  F000         	goto	start
  1208  001814                     __end_of_main:
  1209                           	callstack 0
  1210                           
  1211 ;; *************** function _set_digit_pin *****************
  1212 ;; Defined at:
  1213 ;;		line 920 in file "main.c"
  1214 ;; Parameters:    Size  Location     Type
  1215 ;;		None
  1216 ;; Auto vars:     Size  Location     Type
  1217 ;;		None
  1218 ;; Return value:  Size  Location     Type
  1219 ;;                  1    wreg      void 
  1220 ;; Registers used:
  1221 ;;		wreg, status,2, status,0
  1222 ;; Tracked objects:
  1223 ;;		On entry : 0/0
  1224 ;;		On exit  : 0/0
  1225 ;;		Unchanged: 0/0
  1226 ;; Data sizes:     COMRAM   BANK0   BANK1   BANK2   BANK3   BANK4   BANK5   BANK6   BANK7   BANK8   BANK9  BANK10  BANK1
      +1  BANK12  BANK13  BANK14  BANK15
  1227 ;;      Params:         0       0       0       0       0       0       0       0       0       0       0       0       
      +0       0       0       0       0
  1228 ;;      Locals:         0       0       0       0       0       0       0       0       0       0       0       0       
      +0       0       0       0       0
  1229 ;;      Temps:          2       0       0       0       0       0       0       0       0       0       0       0       
      +0       0       0       0       0
  1230 ;;      Totals:         2       0       0       0       0       0       0       0       0       0       0       0       
      +0       0       0       0       0
  1231 ;;Total ram usage:        2 bytes
  1232 ;; Hardware stack levels used:    1
  1233 ;; Hardware stack levels required when called:    4
  1234 ;; This function calls:
  1235 ;;		Nothing
  1236 ;; This function is called by:
  1237 ;;		_main
  1238 ;; This function uses a non-reentrant model
  1239 ;;
  1240                           
  1241                           	psect	text1
  1242  0024A4                     __ptext1:
  1243                           	callstack 0
  1244  0024A4                     _set_digit_pin:
  1245                           	callstack 26
  1246  0024A4                     
  1247                           ;main.c: 921:             switch (digit) {
  1248  0024A4  EF6C  F012         	goto	l4439
  1249  0024A8                     l4421:
  1250                           
  1251                           ;main.c: 923:                 LATH = 0x08;
  1252  0024A8  0E08               	movlw	8
  1253  0024AA  6E90               	movwf	144,c	;volatile
  1254  0024AC                     
  1255                           ;main.c: 924:                 LATJ = display_digits[0];
  1256  0024AC  C0F2  FF91         	movff	_display_digits,3985	;volatile
  1257                           
  1258                           ;main.c: 925:                 break;
  1259  0024B0  EF8A  F012         	goto	l4441
  1260  0024B4                     l4425:
  1261                           
  1262                           ;main.c: 927:                 LATH = 0x04;
  1263  0024B4  0E04               	movlw	4
  1264  0024B6  6E90               	movwf	144,c	;volatile
  1265  0024B8                     
  1266                           ;main.c: 928:                 LATJ = display_digits[1];
  1267  0024B8  C0F4  FF91         	movff	_display_digits+2,3985	;volatile
  1268                           
  1269                           ;main.c: 929:                 break;
  1270  0024BC  EF8A  F012         	goto	l4441
  1271  0024C0                     l4429:
  1272                           
  1273                           ;main.c: 931:                 LATH = 0x02;
  1274  0024C0  0E02               	movlw	2
  1275  0024C2  6E90               	movwf	144,c	;volatile
  1276  0024C4                     
  1277                           ;main.c: 932:                 LATJ = display_digits[2];
  1278  0024C4  C0F6  FF91         	movff	_display_digits+4,3985	;volatile
  1279                           
  1280                           ;main.c: 933:                 break;
  1281  0024C8  EF8A  F012         	goto	l4441
  1282  0024CC                     l4433:
  1283                           
  1284                           ;main.c: 935:                 LATH = 0x01;
  1285  0024CC  0E01               	movlw	1
  1286  0024CE  6E90               	movwf	144,c	;volatile
  1287  0024D0                     
  1288                           ;main.c: 936:                 LATJ = display_digits[3];
  1289  0024D0  C0F8  FF91         	movff	_display_digits+6,3985	;volatile
  1290                           
  1291                           ;main.c: 937:                 break;
  1292  0024D4  EF8A  F012         	goto	l4441
  1293  0024D8                     l4439:
  1294  0024D8  C0B8  F00D         	movff	_digit,??_set_digit_pin
  1295  0024DC  C0B9  F00E         	movff	_digit+1,??_set_digit_pin+1
  1296                           
  1297                           ; Switch on 2 bytes has been partitioned into a top level switch of size 1, and 1 sub-sw
      +                          itches
  1298                           ; Switch size 1, requested type "simple"
  1299                           ; Number of cases is 1, Range of values is 0 to 0
  1300                           ; switch strategies available:
  1301                           ; Name         Instructions Cycles
  1302                           ; simple_byte            4     3 (average)
  1303                           ;	Chosen strategy is simple_byte
  1304  0024E0  500E               	movf	(??_set_digit_pin+1)^0,w,c
  1305  0024E2  0A00               	xorlw	0	; case 0
  1306  0024E4  B4D8               	btfsc	status,2,c
  1307  0024E6  EF77  F012         	goto	l4685
  1308  0024EA  EF8A  F012         	goto	l4441
  1309  0024EE                     l4685:
  1310                           
  1311                           ; Switch size 1, requested type "simple"
  1312                           ; Number of cases is 4, Range of values is 0 to 3
  1313                           ; switch strategies available:
  1314                           ; Name         Instructions Cycles
  1315                           ; simple_byte           13     7 (average)
  1316                           ;	Chosen strategy is simple_byte
  1317  0024EE  500D               	movf	??_set_digit_pin^0,w,c
  1318  0024F0  0A00               	xorlw	0	; case 0
  1319  0024F2  B4D8               	btfsc	status,2,c
  1320  0024F4  EF54  F012         	goto	l4421
  1321  0024F8  0A01               	xorlw	1	; case 1
  1322  0024FA  B4D8               	btfsc	status,2,c
  1323  0024FC  EF5A  F012         	goto	l4425
  1324  002500  0A03               	xorlw	3	; case 2
  1325  002502  B4D8               	btfsc	status,2,c
  1326  002504  EF60  F012         	goto	l4429
  1327  002508  0A01               	xorlw	1	; case 3
  1328  00250A  B4D8               	btfsc	status,2,c
  1329  00250C  EF66  F012         	goto	l4433
  1330  002510  EF8A  F012         	goto	l4441
  1331  002514                     l4441:
  1332                           
  1333                           ;main.c: 939:         digit = (digit+1)%4;
  1334  002514  0E01               	movlw	1
  1335  002516  0100               	movlb	0	; () banked
  1336  002518  25B8               	addwf	_digit& (0+255),w,b
  1337  00251A  6E0D               	movwf	??_set_digit_pin^0,c
  1338  00251C  0E00               	movlw	0
  1339  00251E  21B9               	addwfc	(_digit+1)& (0+255),w,b
  1340  002520  6E0E               	movwf	(??_set_digit_pin+1)^0,c
  1341  002522  0E03               	movlw	3
  1342  002524  140D               	andwf	??_set_digit_pin^0,w,c
  1343  002526  6FB8               	movwf	_digit& (0+255),b
  1344  002528  6BB9               	clrf	(_digit+1)& (0+255),b
  1345  00252A                     
  1346                           ; BSR set to: 0
  1347  00252A  0012               	return		;funcret
  1348  00252C                     __end_of_set_digit_pin:
  1349                           	callstack 0
  1350                           
  1351 ;; *************** function _send_packet *****************
  1352 ;; Defined at:
  1353 ;;		line 441 in file "main.c"
  1354 ;; Parameters:    Size  Location     Type
  1355 ;;		None
  1356 ;; Auto vars:     Size  Location     Type
  1357 ;;  msg             8   40[COMRAM] struct out_msg
  1358 ;; Return value:  Size  Location     Type
  1359 ;;                  1    wreg      void 
  1360 ;; Registers used:
  1361 ;;		wreg, fsr0l, fsr0h, fsr1l, fsr1h, fsr2l, fsr2h, status,2, status,0, cstack
  1362 ;; Tracked objects:
  1363 ;;		On entry : 0/0
  1364 ;;		On exit  : 0/0
  1365 ;;		Unchanged: 0/0
  1366 ;; Data sizes:     COMRAM   BANK0   BANK1   BANK2   BANK3   BANK4   BANK5   BANK6   BANK7   BANK8   BANK9  BANK10  BANK1
      +1  BANK12  BANK13  BANK14  BANK15
  1367 ;;      Params:         0       0       0       0       0       0       0       0       0       0       0       0       
      +0       0       0       0       0
  1368 ;;      Locals:         8       0       0       0       0       0       0       0       0       0       0       0       
      +0       0       0       0       0
  1369 ;;      Temps:          2       0       0       0       0       0       0       0       0       0       0       0       
      +0       0       0       0       0
  1370 ;;      Totals:        10       0       0       0       0       0       0       0       0       0       0       0       
      +0       0       0       0       0
  1371 ;;Total ram usage:       10 bytes
  1372 ;; Hardware stack levels used:    1
  1373 ;; Hardware stack levels required when called:    6
  1374 ;; This function calls:
  1375 ;;		___awdiv
  1376 ;;		___awmod
  1377 ;;		_fill_outbuffer
  1378 ;;		_int_to_char
  1379 ;;		_pop_msg_queue
  1380 ;; This function is called by:
  1381 ;;		_main
  1382 ;; This function uses a non-reentrant model
  1383 ;;
  1384                           
  1385                           	psect	text2
  1386  0012AC                     __ptext2:
  1387                           	callstack 0
  1388  0012AC                     _send_packet:
  1389                           	callstack 24
  1390  0012AC                     
  1391                           ;main.c: 442:     out_msg msg;;main.c: 443:     if (msg_queue_size > 0) msg = pop_msg_qu
      +                          eue();
  1392  0012AC  0100               	movlb	0	; () banked
  1393  0012AE  BFA5               	btfsc	(_msg_queue_size+1)& (0+255),7,b
  1394  0012B0  EF62  F009         	goto	u4021
  1395  0012B4  51A5               	movf	(_msg_queue_size+1)& (0+255),w,b
  1396  0012B6  E108               	bnz	u4020
  1397  0012B8  05A4               	decf	_msg_queue_size& (0+255),w,b
  1398  0012BA  A0D8               	btfss	status,0,c
  1399  0012BC  EF62  F009         	goto	u4021
  1400  0012C0  EF64  F009         	goto	u4020
  1401  0012C4                     u4021:
  1402  0012C4  EF6F  F009         	goto	l4293
  1403  0012C8                     u4020:
  1404  0012C8                     
  1405                           ; BSR set to: 0
  1406  0012C8  ECCF  F010         	call	_pop_msg_queue	;wreg free
  1407  0012CC  EE20  F029         	lfsr	2,send_packet@msg
  1408  0012D0  0E07               	movlw	7
  1409  0012D2                     u4031:
  1410  0012D2  CFEB FFDB          	movff	plusw0,plusw2
  1411  0012D6  06E8               	decf	wreg,f,c
  1412  0012D8  E2FC               	bc	u4031
  1413  0012DA  EF71  F009         	goto	l4295
  1414  0012DE                     l4293:
  1415                           
  1416                           ; BSR set to: 0
  1417  0012DE  0E00               	movlw	0
  1418  0012E0  6FCD               	movwf	_curr_message_state& (0+255),b
  1419  0012E2                     l4295:
  1420                           
  1421                           ;main.c: 446:     if (msg.msg_type == 'S') curr_message_state = PARKING_SPACE_M;
  1422  0012E2  0E53               	movlw	83
  1423  0012E4  182E               	xorwf	(send_packet@msg+5)^0,w,c
  1424  0012E6  A4D8               	btfss	status,2,c
  1425  0012E8  EF78  F009         	goto	u4041
  1426  0012EC  EF7A  F009         	goto	u4040
  1427  0012F0                     u4041:
  1428  0012F0  EF7F  F009         	goto	l4299
  1429  0012F4                     u4040:
  1430  0012F4  0E01               	movlw	1
  1431  0012F6  0100               	movlb	0	; () banked
  1432  0012F8  6FCD               	movwf	_curr_message_state& (0+255),b
  1433  0012FA  EFD6  F00A         	goto	l4365
  1434  0012FE                     l4299:
  1435  0012FE  0E46               	movlw	70
  1436  001300  182E               	xorwf	(send_packet@msg+5)^0,w,c
  1437  001302  A4D8               	btfss	status,2,c
  1438  001304  EF86  F009         	goto	u4051
  1439  001308  EF88  F009         	goto	u4050
  1440  00130C                     u4051:
  1441  00130C  EF8D  F009         	goto	l4303
  1442  001310                     u4050:
  1443  001310  0E02               	movlw	2
  1444  001312  0100               	movlb	0	; () banked
  1445  001314  6FCD               	movwf	_curr_message_state& (0+255),b
  1446  001316  EFD6  F00A         	goto	l4365
  1447  00131A                     l4303:
  1448  00131A  0E52               	movlw	82
  1449  00131C  182E               	xorwf	(send_packet@msg+5)^0,w,c
  1450  00131E  A4D8               	btfss	status,2,c
  1451  001320  EF94  F009         	goto	u4061
  1452  001324  EF96  F009         	goto	u4060
  1453  001328                     u4061:
  1454  001328  EF9B  F009         	goto	l284
  1455  00132C                     u4060:
  1456  00132C  0E03               	movlw	3
  1457  00132E  0100               	movlb	0	; () banked
  1458  001330  6FCD               	movwf	_curr_message_state& (0+255),b
  1459  001332  EFD6  F00A         	goto	l4365
  1460  001336                     l284:
  1461                           
  1462                           ;main.c: 450:     switch (curr_message_state) {
  1463  001336  EFD6  F00A         	goto	l4365
  1464  00133A                     l4307:
  1465                           
  1466                           ; BSR set to: 0
  1467                           ;main.c: 452:             pkt_out[0] = '$';
  1468  00133A  0E24               	movlw	36
  1469  00133C  6F74               	movwf	_pkt_out& (0+255),b
  1470                           
  1471                           ;main.c: 453:             pkt_out[1] = 'E';
  1472  00133E  0E45               	movlw	69
  1473  001340  6F75               	movwf	(_pkt_out+1)& (0+255),b
  1474                           
  1475                           ;main.c: 454:             pkt_out[2] = 'M';
  1476  001342  0E4D               	movlw	77
  1477  001344  6F76               	movwf	(_pkt_out+2)& (0+255),b
  1478                           
  1479                           ;main.c: 455:             pkt_out[3] = 'P';
  1480  001346  0E50               	movlw	80
  1481  001348  6F77               	movwf	(_pkt_out+3)& (0+255),b
  1482  00134A                     
  1483                           ; BSR set to: 0
  1484                           ;main.c: 456:             pkt_out[4] = total_empty_slots / 10 + 0x30;
  1485  00134A  C04D  F00D         	movff	_total_empty_slots,___awdiv@dividend
  1486  00134E  C04E  F00E         	movff	_total_empty_slots+1,___awdiv@dividend+1
  1487  001352  0E00               	movlw	0
  1488  001354  6E10               	movwf	(___awdiv@divisor+1)^0,c
  1489  001356  0E0A               	movlw	10
  1490  001358  6E0F               	movwf	___awdiv@divisor^0,c
  1491  00135A  ECBD  F00F         	call	___awdiv	;wreg free
  1492  00135E  500D               	movf	?___awdiv^0,w,c
  1493  001360  0F30               	addlw	48
  1494  001362  0100               	movlb	0	; () banked
  1495  001364  6F78               	movwf	(_pkt_out+4)& (0+255),b
  1496  001366                     
  1497                           ; BSR set to: 0
  1498                           ;main.c: 457:             pkt_out[5] = total_empty_slots % 10 + 0x30;
  1499  001366  C04D  F015         	movff	_total_empty_slots,___awmod@dividend
  1500  00136A  C04E  F016         	movff	_total_empty_slots+1,___awmod@dividend+1
  1501  00136E  0E00               	movlw	0
  1502  001370  6E18               	movwf	(___awmod@divisor+1)^0,c
  1503  001372  0E0A               	movlw	10
  1504  001374  6E17               	movwf	___awmod@divisor^0,c
  1505  001376  EC77  F010         	call	___awmod	;wreg free
  1506  00137A  5015               	movf	?___awmod^0,w,c
  1507  00137C  0F30               	addlw	48
  1508  00137E  0100               	movlb	0	; () banked
  1509  001380  6F79               	movwf	(_pkt_out+5)& (0+255),b
  1510                           
  1511                           ;main.c: 458:             pkt_out[6] = '#';
  1512  001382  0E23               	movlw	35
  1513  001384  6F7A               	movwf	(_pkt_out+6)& (0+255),b
  1514                           
  1515                           ;main.c: 459:             pkt_outsize = 7;
  1516  001386  0E07               	movlw	7
  1517  001388  6FCA               	movwf	_pkt_outsize& (0+255),b
  1518                           
  1519                           ;main.c: 460:             break;
  1520  00138A  EFF4  F00A         	goto	l4367
  1521  00138E                     l4313:
  1522                           
  1523                           ; BSR set to: 0
  1524                           ;main.c: 462:             pkt_out[0] = '$';
  1525  00138E  0E24               	movlw	36
  1526  001390  6F74               	movwf	_pkt_out& (0+255),b
  1527                           
  1528                           ;main.c: 463:             pkt_out[1] = 'S';
  1529  001392  0E53               	movlw	83
  1530  001394  6F75               	movwf	(_pkt_out+1)& (0+255),b
  1531                           
  1532                           ;main.c: 464:             pkt_out[2] = 'P';
  1533  001396  0E50               	movlw	80
  1534  001398  6F76               	movwf	(_pkt_out+2)& (0+255),b
  1535                           
  1536                           ;main.c: 465:             pkt_out[3] = 'C';
  1537  00139A  0E43               	movlw	67
  1538  00139C  6F77               	movwf	(_pkt_out+3)& (0+255),b
  1539  00139E                     
  1540                           ; BSR set to: 0
  1541                           ;main.c: 466:             pkt_out[4] = msg.licence_num / 100 + 0x30;
  1542  00139E  C029  F00D         	movff	send_packet@msg,___awdiv@dividend
  1543  0013A2  C02A  F00E         	movff	send_packet@msg+1,___awdiv@dividend+1
  1544  0013A6  0E00               	movlw	0
  1545  0013A8  6E10               	movwf	(___awdiv@divisor+1)^0,c
  1546  0013AA  0E64               	movlw	100
  1547  0013AC  6E0F               	movwf	___awdiv@divisor^0,c
  1548  0013AE  ECBD  F00F         	call	___awdiv	;wreg free
  1549  0013B2  500D               	movf	?___awdiv^0,w,c
  1550  0013B4  0F30               	addlw	48
  1551  0013B6  0100               	movlb	0	; () banked
  1552  0013B8  6F78               	movwf	(_pkt_out+4)& (0+255),b
  1553  0013BA                     
  1554                           ; BSR set to: 0
  1555                           ;main.c: 467:             pkt_out[5] = (msg.licence_num / 10) % 10 + 0x30;
  1556  0013BA  0E00               	movlw	0
  1557  0013BC  6E10               	movwf	(___awdiv@divisor+1)^0,c
  1558  0013BE  0E0A               	movlw	10
  1559  0013C0  6E0F               	movwf	___awdiv@divisor^0,c
  1560  0013C2  C029  F00D         	movff	send_packet@msg,___awdiv@dividend
  1561  0013C6  C02A  F00E         	movff	send_packet@msg+1,___awdiv@dividend+1
  1562  0013CA  ECBD  F00F         	call	___awdiv	;wreg free
  1563  0013CE  C00D  F015         	movff	?___awdiv,___awmod@dividend
  1564  0013D2  C00E  F016         	movff	?___awdiv+1,___awmod@dividend+1
  1565  0013D6  0E00               	movlw	0
  1566  0013D8  6E18               	movwf	(___awmod@divisor+1)^0,c
  1567  0013DA  0E0A               	movlw	10
  1568  0013DC  6E17               	movwf	___awmod@divisor^0,c
  1569  0013DE  EC77  F010         	call	___awmod	;wreg free
  1570  0013E2  5015               	movf	?___awmod^0,w,c
  1571  0013E4  0F30               	addlw	48
  1572  0013E6  0100               	movlb	0	; () banked
  1573  0013E8  6F79               	movwf	(_pkt_out+5)& (0+255),b
  1574  0013EA                     
  1575                           ; BSR set to: 0
  1576                           ;main.c: 468:             pkt_out[6] = msg.licence_num % 10 + 0x30;
  1577  0013EA  C029  F015         	movff	send_packet@msg,___awmod@dividend
  1578  0013EE  C02A  F016         	movff	send_packet@msg+1,___awmod@dividend+1
  1579  0013F2  0E00               	movlw	0
  1580  0013F4  6E18               	movwf	(___awmod@divisor+1)^0,c
  1581  0013F6  0E0A               	movlw	10
  1582  0013F8  6E17               	movwf	___awmod@divisor^0,c
  1583  0013FA  EC77  F010         	call	___awmod	;wreg free
  1584  0013FE  5015               	movf	?___awmod^0,w,c
  1585  001400  0F30               	addlw	48
  1586  001402  0100               	movlb	0	; () banked
  1587  001404  6F7A               	movwf	(_pkt_out+6)& (0+255),b
  1588  001406                     
  1589                           ; BSR set to: 0
  1590                           ;main.c: 469:             pkt_out[7] = msg.level;
  1591  001406  C02B  F07B         	movff	send_packet@msg+2,_pkt_out+7
  1592  00140A                     
  1593                           ; BSR set to: 0
  1594                           ;main.c: 470:             pkt_out[8] = msg.park_spot / 10 + 0x30;
  1595  00140A  C02C  F00D         	movff	send_packet@msg+3,___awdiv@dividend
  1596  00140E  C02D  F00E         	movff	send_packet@msg+4,___awdiv@dividend+1
  1597  001412  0E00               	movlw	0
  1598  001414  6E10               	movwf	(___awdiv@divisor+1)^0,c
  1599  001416  0E0A               	movlw	10
  1600  001418  6E0F               	movwf	___awdiv@divisor^0,c
  1601  00141A  ECBD  F00F         	call	___awdiv	;wreg free
  1602  00141E  500D               	movf	?___awdiv^0,w,c
  1603  001420  0F30               	addlw	48
  1604  001422  0100               	movlb	0	; () banked
  1605  001424  6F7C               	movwf	(_pkt_out+8)& (0+255),b
  1606  001426                     
  1607                           ; BSR set to: 0
  1608                           ;main.c: 471:             pkt_out[9] = msg.park_spot % 10 + 0x30;
  1609  001426  C02C  F015         	movff	send_packet@msg+3,___awmod@dividend
  1610  00142A  C02D  F016         	movff	send_packet@msg+4,___awmod@dividend+1
  1611  00142E  0E00               	movlw	0
  1612  001430  6E18               	movwf	(___awmod@divisor+1)^0,c
  1613  001432  0E0A               	movlw	10
  1614  001434  6E17               	movwf	___awmod@divisor^0,c
  1615  001436  EC77  F010         	call	___awmod	;wreg free
  1616  00143A  5015               	movf	?___awmod^0,w,c
  1617  00143C  0F30               	addlw	48
  1618  00143E  0100               	movlb	0	; () banked
  1619  001440  6F7D               	movwf	(_pkt_out+9)& (0+255),b
  1620  001442                     
  1621                           ; BSR set to: 0
  1622                           ;main.c: 472:             pkt_out[10] = '#';
  1623  001442  0E23               	movlw	35
  1624  001444  6F7E               	movwf	(_pkt_out+10)& (0+255),b
  1625  001446                     
  1626                           ; BSR set to: 0
  1627                           ;main.c: 473:             pkt_outsize = 11;
  1628  001446  0E0B               	movlw	11
  1629  001448  6FCA               	movwf	_pkt_outsize& (0+255),b
  1630                           
  1631                           ;main.c: 474:             break;
  1632  00144A  EFF4  F00A         	goto	l4367
  1633  00144E                     l4331:
  1634                           
  1635                           ; BSR set to: 0
  1636                           ;main.c: 476:             pkt_out[0] = '$';
  1637  00144E  0E24               	movlw	36
  1638  001450  6F74               	movwf	_pkt_out& (0+255),b
  1639                           
  1640                           ;main.c: 477:             pkt_out[1] = 'F';
  1641  001452  0E46               	movlw	70
  1642  001454  6F75               	movwf	(_pkt_out+1)& (0+255),b
  1643                           
  1644                           ;main.c: 478:             pkt_out[2] = 'E';
  1645  001456  0E45               	movlw	69
  1646  001458  6F76               	movwf	(_pkt_out+2)& (0+255),b
  1647                           
  1648                           ;main.c: 479:             pkt_out[3] = 'E';
  1649  00145A  0E45               	movlw	69
  1650  00145C  6F77               	movwf	(_pkt_out+3)& (0+255),b
  1651  00145E                     
  1652                           ; BSR set to: 0
  1653                           ;main.c: 480:             pkt_out[4] = int_to_char(msg.licence_num, 100);
  1654  00145E  C029  F01B         	movff	send_packet@msg,int_to_char@val
  1655  001462  C02A  F01C         	movff	send_packet@msg+1,int_to_char@val+1
  1656  001466  0E00               	movlw	0
  1657  001468  6E1E               	movwf	(int_to_char@divider+1)^0,c
  1658  00146A  0E64               	movlw	100
  1659  00146C  6E1D               	movwf	int_to_char@divider^0,c
  1660  00146E  EC34  F014         	call	_int_to_char	;wreg free
  1661  001472  501B               	movf	?_int_to_char^0,w,c
  1662  001474  0100               	movlb	0	; () banked
  1663  001476  6F78               	movwf	(_pkt_out+4)& (0+255),b
  1664  001478                     
  1665                           ; BSR set to: 0
  1666                           ;main.c: 481:             pkt_out[5] = int_to_char(msg.licence_num, 10);;
  1667  001478  C029  F01B         	movff	send_packet@msg,int_to_char@val
  1668  00147C  C02A  F01C         	movff	send_packet@msg+1,int_to_char@val+1
  1669  001480  0E00               	movlw	0
  1670  001482  6E1E               	movwf	(int_to_char@divider+1)^0,c
  1671  001484  0E0A               	movlw	10
  1672  001486  6E1D               	movwf	int_to_char@divider^0,c
  1673  001488  EC34  F014         	call	_int_to_char	;wreg free
  1674  00148C  501B               	movf	?_int_to_char^0,w,c
  1675  00148E  0100               	movlb	0	; () banked
  1676  001490  6F79               	movwf	(_pkt_out+5)& (0+255),b
  1677  001492                     
  1678                           ; BSR set to: 0
  1679                           ;main.c: 482:             pkt_out[6] = int_to_char(msg.licence_num, 1);;
  1680  001492  C029  F01B         	movff	send_packet@msg,int_to_char@val
  1681  001496  C02A  F01C         	movff	send_packet@msg+1,int_to_char@val+1
  1682  00149A  0E00               	movlw	0
  1683  00149C  6E1E               	movwf	(int_to_char@divider+1)^0,c
  1684  00149E  0E01               	movlw	1
  1685  0014A0  6E1D               	movwf	int_to_char@divider^0,c
  1686  0014A2  EC34  F014         	call	_int_to_char	;wreg free
  1687  0014A6  501B               	movf	?_int_to_char^0,w,c
  1688  0014A8  0100               	movlb	0	; () banked
  1689  0014AA  6F7A               	movwf	(_pkt_out+6)& (0+255),b
  1690  0014AC                     
  1691                           ; BSR set to: 0
  1692                           ;main.c: 483:             pkt_out[7] = int_to_char(msg.total_fee, 100);
  1693  0014AC  C02F  F01B         	movff	send_packet@msg+6,int_to_char@val
  1694  0014B0  C030  F01C         	movff	send_packet@msg+7,int_to_char@val+1
  1695  0014B4  0E00               	movlw	0
  1696  0014B6  6E1E               	movwf	(int_to_char@divider+1)^0,c
  1697  0014B8  0E64               	movlw	100
  1698  0014BA  6E1D               	movwf	int_to_char@divider^0,c
  1699  0014BC  EC34  F014         	call	_int_to_char	;wreg free
  1700  0014C0  501B               	movf	?_int_to_char^0,w,c
  1701  0014C2  0100               	movlb	0	; () banked
  1702  0014C4  6F7B               	movwf	(_pkt_out+7)& (0+255),b
  1703  0014C6                     
  1704                           ; BSR set to: 0
  1705                           ;main.c: 484:             pkt_out[8] = int_to_char(msg.total_fee, 10);
  1706  0014C6  C02F  F01B         	movff	send_packet@msg+6,int_to_char@val
  1707  0014CA  C030  F01C         	movff	send_packet@msg+7,int_to_char@val+1
  1708  0014CE  0E00               	movlw	0
  1709  0014D0  6E1E               	movwf	(int_to_char@divider+1)^0,c
  1710  0014D2  0E0A               	movlw	10
  1711  0014D4  6E1D               	movwf	int_to_char@divider^0,c
  1712  0014D6  EC34  F014         	call	_int_to_char	;wreg free
  1713  0014DA  501B               	movf	?_int_to_char^0,w,c
  1714  0014DC  0100               	movlb	0	; () banked
  1715  0014DE  6F7C               	movwf	(_pkt_out+8)& (0+255),b
  1716  0014E0                     
  1717                           ; BSR set to: 0
  1718                           ;main.c: 485:             pkt_out[9] = int_to_char(msg.total_fee, 1);
  1719  0014E0  C02F  F01B         	movff	send_packet@msg+6,int_to_char@val
  1720  0014E4  C030  F01C         	movff	send_packet@msg+7,int_to_char@val+1
  1721  0014E8  0E00               	movlw	0
  1722  0014EA  6E1E               	movwf	(int_to_char@divider+1)^0,c
  1723  0014EC  0E01               	movlw	1
  1724  0014EE  6E1D               	movwf	int_to_char@divider^0,c
  1725  0014F0  EC34  F014         	call	_int_to_char	;wreg free
  1726  0014F4  501B               	movf	?_int_to_char^0,w,c
  1727  0014F6  0100               	movlb	0	; () banked
  1728  0014F8  6F7D               	movwf	(_pkt_out+9)& (0+255),b
  1729                           
  1730                           ;main.c: 486:             pkt_out[10] = '#';
  1731  0014FA  0E23               	movlw	35
  1732  0014FC  6F7E               	movwf	(_pkt_out+10)& (0+255),b
  1733                           
  1734                           ;main.c: 487:             pkt_outsize = 11;
  1735  0014FE  0E0B               	movlw	11
  1736  001500  6FCA               	movwf	_pkt_outsize& (0+255),b
  1737                           
  1738                           ;main.c: 488:             break;
  1739  001502  EFF4  F00A         	goto	l4367
  1740  001506                     l4345:
  1741                           
  1742                           ; BSR set to: 0
  1743                           ;main.c: 490:             pkt_out[0] = '$';
  1744  001506  0E24               	movlw	36
  1745  001508  6F74               	movwf	_pkt_out& (0+255),b
  1746                           
  1747                           ;main.c: 491:             pkt_out[1] = 'R';
  1748  00150A  0E52               	movlw	82
  1749  00150C  6F75               	movwf	(_pkt_out+1)& (0+255),b
  1750                           
  1751                           ;main.c: 492:             pkt_out[2] = 'E';
  1752  00150E  0E45               	movlw	69
  1753  001510  6F76               	movwf	(_pkt_out+2)& (0+255),b
  1754                           
  1755                           ;main.c: 493:             pkt_out[3] = 'S';
  1756  001512  0E53               	movlw	83
  1757  001514  6F77               	movwf	(_pkt_out+3)& (0+255),b
  1758  001516                     
  1759                           ; BSR set to: 0
  1760                           ;main.c: 494:             pkt_out[4] = int_to_char(msg.licence_num, 100);
  1761  001516  C029  F01B         	movff	send_packet@msg,int_to_char@val
  1762  00151A  C02A  F01C         	movff	send_packet@msg+1,int_to_char@val+1
  1763  00151E  0E00               	movlw	0
  1764  001520  6E1E               	movwf	(int_to_char@divider+1)^0,c
  1765  001522  0E64               	movlw	100
  1766  001524  6E1D               	movwf	int_to_char@divider^0,c
  1767  001526  EC34  F014         	call	_int_to_char	;wreg free
  1768  00152A  501B               	movf	?_int_to_char^0,w,c
  1769  00152C  0100               	movlb	0	; () banked
  1770  00152E  6F78               	movwf	(_pkt_out+4)& (0+255),b
  1771  001530                     
  1772                           ; BSR set to: 0
  1773                           ;main.c: 495:             pkt_out[5] = int_to_char(msg.licence_num, 10);
  1774  001530  C029  F01B         	movff	send_packet@msg,int_to_char@val
  1775  001534  C02A  F01C         	movff	send_packet@msg+1,int_to_char@val+1
  1776  001538  0E00               	movlw	0
  1777  00153A  6E1E               	movwf	(int_to_char@divider+1)^0,c
  1778  00153C  0E0A               	movlw	10
  1779  00153E  6E1D               	movwf	int_to_char@divider^0,c
  1780  001540  EC34  F014         	call	_int_to_char	;wreg free
  1781  001544  501B               	movf	?_int_to_char^0,w,c
  1782  001546  0100               	movlb	0	; () banked
  1783  001548  6F79               	movwf	(_pkt_out+5)& (0+255),b
  1784  00154A                     
  1785                           ; BSR set to: 0
  1786                           ;main.c: 496:             pkt_out[6] = int_to_char(msg.licence_num, 1);
  1787  00154A  C029  F01B         	movff	send_packet@msg,int_to_char@val
  1788  00154E  C02A  F01C         	movff	send_packet@msg+1,int_to_char@val+1
  1789  001552  0E00               	movlw	0
  1790  001554  6E1E               	movwf	(int_to_char@divider+1)^0,c
  1791  001556  0E01               	movlw	1
  1792  001558  6E1D               	movwf	int_to_char@divider^0,c
  1793  00155A  EC34  F014         	call	_int_to_char	;wreg free
  1794  00155E  501B               	movf	?_int_to_char^0,w,c
  1795  001560  0100               	movlb	0	; () banked
  1796  001562  6F7A               	movwf	(_pkt_out+6)& (0+255),b
  1797  001564                     
  1798                           ; BSR set to: 0
  1799                           ;main.c: 497:             pkt_out[7] = int_to_char(msg.total_fee, 10);
  1800  001564  C02F  F01B         	movff	send_packet@msg+6,int_to_char@val
  1801  001568  C030  F01C         	movff	send_packet@msg+7,int_to_char@val+1
  1802  00156C  0E00               	movlw	0
  1803  00156E  6E1E               	movwf	(int_to_char@divider+1)^0,c
  1804  001570  0E0A               	movlw	10
  1805  001572  6E1D               	movwf	int_to_char@divider^0,c
  1806  001574  EC34  F014         	call	_int_to_char	;wreg free
  1807  001578  501B               	movf	?_int_to_char^0,w,c
  1808  00157A  0100               	movlb	0	; () banked
  1809  00157C  6F7B               	movwf	(_pkt_out+7)& (0+255),b
  1810  00157E                     
  1811                           ; BSR set to: 0
  1812                           ;main.c: 498:             pkt_out[8] = int_to_char(msg.total_fee, 1);
  1813  00157E  C02F  F01B         	movff	send_packet@msg+6,int_to_char@val
  1814  001582  C030  F01C         	movff	send_packet@msg+7,int_to_char@val+1
  1815  001586  0E00               	movlw	0
  1816  001588  6E1E               	movwf	(int_to_char@divider+1)^0,c
  1817  00158A  0E01               	movlw	1
  1818  00158C  6E1D               	movwf	int_to_char@divider^0,c
  1819  00158E  EC34  F014         	call	_int_to_char	;wreg free
  1820  001592  501B               	movf	?_int_to_char^0,w,c
  1821  001594  0100               	movlb	0	; () banked
  1822  001596  6F7C               	movwf	(_pkt_out+8)& (0+255),b
  1823  001598                     
  1824                           ; BSR set to: 0
  1825                           ;main.c: 499:             pkt_out[9] = '#';
  1826  001598  0E23               	movlw	35
  1827  00159A  6F7D               	movwf	(_pkt_out+9)& (0+255),b
  1828  00159C                     
  1829                           ; BSR set to: 0
  1830                           ;main.c: 500:             pkt_outsize = 10;
  1831  00159C  0E0A               	movlw	10
  1832  00159E  6FCA               	movwf	_pkt_outsize& (0+255),b
  1833                           
  1834                           ;main.c: 501:             break;
  1835  0015A0  EFF4  F00A         	goto	l4367
  1836  0015A4                     l4361:
  1837                           
  1838                           ; BSR set to: 0
  1839                           ;main.c: 503:             pkt_outsize = 0;
  1840  0015A4  0E00               	movlw	0
  1841  0015A6  6FCA               	movwf	_pkt_outsize& (0+255),b
  1842                           
  1843                           ;main.c: 504:             break;
  1844  0015A8  EFF4  F00A         	goto	l4367
  1845  0015AC                     l4365:
  1846  0015AC  0100               	movlb	0	; () banked
  1847  0015AE  51CD               	movf	_curr_message_state& (0+255),w,b
  1848  0015B0  6E27               	movwf	??_send_packet^0,c
  1849  0015B2  6A28               	clrf	(??_send_packet+1)^0,c
  1850                           
  1851                           ; Switch on 2 bytes has been partitioned into a top level switch of size 1, and 1 sub-sw
      +                          itches
  1852                           ; Switch size 1, requested type "simple"
  1853                           ; Number of cases is 1, Range of values is 0 to 0
  1854                           ; switch strategies available:
  1855                           ; Name         Instructions Cycles
  1856                           ; simple_byte            4     3 (average)
  1857                           ;	Chosen strategy is simple_byte
  1858  0015B4  5028               	movf	(??_send_packet+1)^0,w,c
  1859  0015B6  0A00               	xorlw	0	; case 0
  1860  0015B8  B4D8               	btfsc	status,2,c
  1861  0015BA  EFE1  F00A         	goto	l4687
  1862  0015BE  EFD2  F00A         	goto	l4361
  1863  0015C2                     l4687:
  1864                           
  1865                           ; BSR set to: 0
  1866                           ; Switch size 1, requested type "simple"
  1867                           ; Number of cases is 4, Range of values is 0 to 3
  1868                           ; switch strategies available:
  1869                           ; Name         Instructions Cycles
  1870                           ; simple_byte           13     7 (average)
  1871                           ;	Chosen strategy is simple_byte
  1872  0015C2  5027               	movf	??_send_packet^0,w,c
  1873  0015C4  0A00               	xorlw	0	; case 0
  1874  0015C6  B4D8               	btfsc	status,2,c
  1875  0015C8  EF9D  F009         	goto	l4307
  1876  0015CC  0A01               	xorlw	1	; case 1
  1877  0015CE  B4D8               	btfsc	status,2,c
  1878  0015D0  EFC7  F009         	goto	l4313
  1879  0015D4  0A03               	xorlw	3	; case 2
  1880  0015D6  B4D8               	btfsc	status,2,c
  1881  0015D8  EF27  F00A         	goto	l4331
  1882  0015DC  0A01               	xorlw	1	; case 3
  1883  0015DE  B4D8               	btfsc	status,2,c
  1884  0015E0  EF83  F00A         	goto	l4345
  1885  0015E4  EFD2  F00A         	goto	l4361
  1886  0015E8                     l4367:
  1887                           
  1888                           ; BSR set to: 0
  1889                           ;main.c: 506:     fill_outbuffer();
  1890  0015E8  EC6E  F011         	call	_fill_outbuffer	;wreg free
  1891  0015EC  0012               	return		;funcret
  1892  0015EE                     __end_of_send_packet:
  1893                           	callstack 0
  1894                           
  1895 ;; *************** function _pop_msg_queue *****************
  1896 ;; Defined at:
  1897 ;;		line 571 in file "main.c"
  1898 ;; Parameters:    Size  Location     Type
  1899 ;;		None
  1900 ;; Auto vars:     Size  Location     Type
  1901 ;;  m               8   30[COMRAM] struct out_msg
  1902 ;;  empty           8   22[COMRAM] struct out_msg
  1903 ;; Return value:  Size  Location     Type
  1904 ;;                  8   12[COMRAM] struct out_msg
  1905 ;; Registers used:
  1906 ;;		wreg, fsr0l, fsr0h, fsr1l, fsr1h, fsr2l, fsr2h, status,2, status,0
  1907 ;; Tracked objects:
  1908 ;;		On entry : 0/0
  1909 ;;		On exit  : 0/0
  1910 ;;		Unchanged: 0/0
  1911 ;; Data sizes:     COMRAM   BANK0   BANK1   BANK2   BANK3   BANK4   BANK5   BANK6   BANK7   BANK8   BANK9  BANK10  BANK1
      +1  BANK12  BANK13  BANK14  BANK15
  1912 ;;      Params:         8       0       0       0       0       0       0       0       0       0       0       0       
      +0       0       0       0       0
  1913 ;;      Locals:        16       0       0       0       0       0       0       0       0       0       0       0       
      +0       0       0       0       0
  1914 ;;      Temps:          2       0       0       0       0       0       0       0       0       0       0       0       
      +0       0       0       0       0
  1915 ;;      Totals:        26       0       0       0       0       0       0       0       0       0       0       0       
      +0       0       0       0       0
  1916 ;;Total ram usage:       26 bytes
  1917 ;; Hardware stack levels used:    1
  1918 ;; Hardware stack levels required when called:    4
  1919 ;; This function calls:
  1920 ;;		Nothing
  1921 ;; This function is called by:
  1922 ;;		_send_packet
  1923 ;; This function uses a non-reentrant model
  1924 ;;
  1925                           
  1926                           	psect	text3
  1927  00219E                     __ptext3:
  1928                           	callstack 0
  1929  00219E                     _pop_msg_queue:
  1930                           	callstack 25
  1931  00219E                     
  1932                           ;main.c: 572:     out_msg empty = { .msg_type = 'X' };
  1933  00219E  EE20  F0E2         	lfsr	2,pop_msg_queue@F5058
  1934  0021A2  EE10  F017         	lfsr	1,pop_msg_queue@empty
  1935  0021A6  0E07               	movlw	7
  1936  0021A8                     u3731:
  1937  0021A8  CFDB FFE3          	movff	plusw2,plusw1
  1938  0021AC  06E8               	decf	wreg,f,c
  1939  0021AE  E2FC               	bc	u3731
  1940  0021B0                     
  1941                           ;main.c: 573:     if (head_msg_queue == tail_msg_queue) {
  1942  0021B0  0100               	movlb	0	; () banked
  1943  0021B2  51A6               	movf	_tail_msg_queue& (0+255),w,b
  1944  0021B4  19A8               	xorwf	_head_msg_queue& (0+255),w,b
  1945  0021B6  E107               	bnz	u3741
  1946  0021B8  51A7               	movf	(_tail_msg_queue+1)& (0+255),w,b
  1947  0021BA  19A9               	xorwf	(_head_msg_queue+1)& (0+255),w,b
  1948  0021BC  A4D8               	btfss	status,2,c
  1949  0021BE  EFE3  F010         	goto	u3741
  1950  0021C2  EFE5  F010         	goto	u3740
  1951  0021C6                     u3741:
  1952  0021C6  EFF0  F010         	goto	l4119
  1953  0021CA                     u3740:
  1954  0021CA                     
  1955                           ; BSR set to: 0
  1956                           ;main.c: 574:         return empty;
  1957  0021CA  EE20  F017         	lfsr	2,pop_msg_queue@empty
  1958  0021CE  EE00  F00D         	lfsr	0,?_pop_msg_queue
  1959  0021D2  0E07               	movlw	7
  1960  0021D4                     u3751:
  1961  0021D4  CFDB FFEB          	movff	plusw2,plusw0
  1962  0021D8  06E8               	decf	wreg,f,c
  1963  0021DA  E2FC               	bc	u3751
  1964  0021DC  EF20  F011         	goto	l323
  1965  0021E0                     l4119:
  1966                           
  1967                           ; BSR set to: 0
  1968                           ;main.c: 576:     out_msg m = msg_queue[head_msg_queue];
  1969  0021E0  C0A8  F015         	movff	_head_msg_queue,??_pop_msg_queue
  1970  0021E4  C0A9  F016         	movff	_head_msg_queue+1,??_pop_msg_queue+1
  1971  0021E8  90D8               	bcf	status,0,c
  1972  0021EA  3615               	rlcf	??_pop_msg_queue^0,f,c
  1973  0021EC  3616               	rlcf	(??_pop_msg_queue+1)^0,f,c
  1974  0021EE  90D8               	bcf	status,0,c
  1975  0021F0  3615               	rlcf	??_pop_msg_queue^0,f,c
  1976  0021F2  3616               	rlcf	(??_pop_msg_queue+1)^0,f,c
  1977  0021F4  90D8               	bcf	status,0,c
  1978  0021F6  3615               	rlcf	??_pop_msg_queue^0,f,c
  1979  0021F8  3616               	rlcf	(??_pop_msg_queue+1)^0,f,c
  1980  0021FA  0E80               	movlw	low _msg_queue
  1981  0021FC  2415               	addwf	??_pop_msg_queue^0,w,c
  1982  0021FE  6ED9               	movwf	fsr2l,c
  1983  002200  0E03               	movlw	high _msg_queue
  1984  002202  2016               	addwfc	(??_pop_msg_queue+1)^0,w,c
  1985  002204  6EDA               	movwf	fsr2h,c
  1986  002206  EE10  F01F         	lfsr	1,pop_msg_queue@m
  1987  00220A  0E07               	movlw	7
  1988  00220C                     u3761:
  1989  00220C  CFDB FFE3          	movff	plusw2,plusw1
  1990  002210  06E8               	decf	wreg,f,c
  1991  002212  E2FC               	bc	u3761
  1992  002214                     
  1993                           ; BSR set to: 0
  1994                           ;main.c: 577:     head_msg_queue = (head_msg_queue + 1) % 128;
  1995  002214  0E01               	movlw	1
  1996  002216  25A8               	addwf	_head_msg_queue& (0+255),w,b
  1997  002218  6E15               	movwf	??_pop_msg_queue^0,c
  1998  00221A  0E00               	movlw	0
  1999  00221C  21A9               	addwfc	(_head_msg_queue+1)& (0+255),w,b
  2000  00221E  6E16               	movwf	(??_pop_msg_queue+1)^0,c
  2001  002220  0E7F               	movlw	127
  2002  002222  1415               	andwf	??_pop_msg_queue^0,w,c
  2003  002224  6FA8               	movwf	_head_msg_queue& (0+255),b
  2004  002226  6BA9               	clrf	(_head_msg_queue+1)& (0+255),b
  2005  002228                     
  2006                           ; BSR set to: 0
  2007                           ;main.c: 578:     msg_queue_size--;
  2008  002228  07A4               	decf	_msg_queue_size& (0+255),f,b
  2009  00222A  A0D8               	btfss	status,0,c
  2010  00222C  07A5               	decf	(_msg_queue_size+1)& (0+255),f,b
  2011  00222E                     
  2012                           ; BSR set to: 0
  2013                           ;main.c: 579:     return m;
  2014  00222E  EE20  F01F         	lfsr	2,pop_msg_queue@m
  2015  002232  EE00  F00D         	lfsr	0,?_pop_msg_queue
  2016  002236  0E07               	movlw	7
  2017  002238                     u3771:
  2018  002238  CFDB FFEB          	movff	plusw2,plusw0
  2019  00223C  06E8               	decf	wreg,f,c
  2020  00223E  E2FC               	bc	u3771
  2021  002240                     l323:
  2022                           
  2023                           ; BSR set to: 0
  2024  002240  0012               	return		;funcret
  2025  002242                     __end_of_pop_msg_queue:
  2026                           	callstack 0
  2027                           
  2028 ;; *************** function _int_to_char *****************
  2029 ;; Defined at:
  2030 ;;		line 870 in file "main.c"
  2031 ;; Parameters:    Size  Location     Type
  2032 ;;  val             2   26[COMRAM] int 
  2033 ;;  divider         2   28[COMRAM] int 
  2034 ;; Auto vars:     Size  Location     Type
  2035 ;;		None
  2036 ;; Return value:  Size  Location     Type
  2037 ;;                  2   26[COMRAM] int 
  2038 ;; Registers used:
  2039 ;;		wreg, status,2, status,0, cstack
  2040 ;; Tracked objects:
  2041 ;;		On entry : 0/0
  2042 ;;		On exit  : 0/0
  2043 ;;		Unchanged: 0/0
  2044 ;; Data sizes:     COMRAM   BANK0   BANK1   BANK2   BANK3   BANK4   BANK5   BANK6   BANK7   BANK8   BANK9  BANK10  BANK1
      +1  BANK12  BANK13  BANK14  BANK15
  2045 ;;      Params:         4       0       0       0       0       0       0       0       0       0       0       0       
      +0       0       0       0       0
  2046 ;;      Locals:         0       0       0       0       0       0       0       0       0       0       0       0       
      +0       0       0       0       0
  2047 ;;      Temps:          0       0       0       0       0       0       0       0       0       0       0       0       
      +0       0       0       0       0
  2048 ;;      Totals:         4       0       0       0       0       0       0       0       0       0       0       0       
      +0       0       0       0       0
  2049 ;;Total ram usage:        4 bytes
  2050 ;; Hardware stack levels used:    1
  2051 ;; Hardware stack levels required when called:    5
  2052 ;; This function calls:
  2053 ;;		___awdiv
  2054 ;;		___awmod
  2055 ;; This function is called by:
  2056 ;;		_send_packet
  2057 ;; This function uses a non-reentrant model
  2058 ;;
  2059                           
  2060                           	psect	text4
  2061  002868                     __ptext4:
  2062                           	callstack 0
  2063  002868                     _int_to_char:
  2064                           	callstack 24
  2065  002868                     
  2066                           ;main.c: 871:     return (val / divider) % 10 + 0x30;
  2067  002868  C01D  F00F         	movff	int_to_char@divider,___awdiv@divisor
  2068  00286C  C01E  F010         	movff	int_to_char@divider+1,___awdiv@divisor+1
  2069  002870  C01B  F00D         	movff	int_to_char@val,___awdiv@dividend
  2070  002874  C01C  F00E         	movff	int_to_char@val+1,___awdiv@dividend+1
  2071  002878  ECBD  F00F         	call	___awdiv	;wreg free
  2072  00287C  C00D  F015         	movff	?___awdiv,___awmod@dividend
  2073  002880  C00E  F016         	movff	?___awdiv+1,___awmod@dividend+1
  2074  002884  0E00               	movlw	0
  2075  002886  6E18               	movwf	(___awmod@divisor+1)^0,c
  2076  002888  0E0A               	movlw	10
  2077  00288A  6E17               	movwf	___awmod@divisor^0,c
  2078  00288C  EC77  F010         	call	___awmod	;wreg free
  2079  002890  0E30               	movlw	48
  2080  002892  2415               	addwf	?___awmod^0,w,c
  2081  002894  6E1B               	movwf	?_int_to_char^0,c
  2082  002896  0E00               	movlw	0
  2083  002898  2016               	addwfc	(?___awmod+1)^0,w,c
  2084  00289A  6E1C               	movwf	(?_int_to_char+1)^0,c
  2085  00289C  0012               	return		;funcret
  2086  00289E                     __end_of_int_to_char:
  2087                           	callstack 0
  2088                           
  2089 ;; *************** function _send_empty_spaces_packet *****************
  2090 ;; Defined at:
  2091 ;;		line 875 in file "main.c"
  2092 ;; Parameters:    Size  Location     Type
  2093 ;;		None
  2094 ;; Auto vars:     Size  Location     Type
  2095 ;;		None
  2096 ;; Return value:  Size  Location     Type
  2097 ;;                  1    wreg      void 
  2098 ;; Registers used:
  2099 ;;		wreg, fsr2l, fsr2h, status,2, status,0, cstack
  2100 ;; Tracked objects:
  2101 ;;		On entry : 0/0
  2102 ;;		On exit  : 0/0
  2103 ;;		Unchanged: 0/0
  2104 ;; Data sizes:     COMRAM   BANK0   BANK1   BANK2   BANK3   BANK4   BANK5   BANK6   BANK7   BANK8   BANK9  BANK10  BANK1
      +1  BANK12  BANK13  BANK14  BANK15
  2105 ;;      Params:         0       0       0       0       0       0       0       0       0       0       0       0       
      +0       0       0       0       0
  2106 ;;      Locals:         0       0       0       0       0       0       0       0       0       0       0       0       
      +0       0       0       0       0
  2107 ;;      Temps:          0       0       0       0       0       0       0       0       0       0       0       0       
      +0       0       0       0       0
  2108 ;;      Totals:         0       0       0       0       0       0       0       0       0       0       0       0       
      +0       0       0       0       0
  2109 ;;Total ram usage:        0 bytes
  2110 ;; Hardware stack levels used:    1
  2111 ;; Hardware stack levels required when called:    6
  2112 ;; This function calls:
  2113 ;;		___awdiv
  2114 ;;		___awmod
  2115 ;;		_fill_outbuffer
  2116 ;; This function is called by:
  2117 ;;		_main
  2118 ;; This function uses a non-reentrant model
  2119 ;;
  2120                           
  2121                           	psect	text5
  2122  00273C                     __ptext5:
  2123                           	callstack 0
  2124  00273C                     _send_empty_spaces_packet:
  2125                           	callstack 24
  2126  00273C                     
  2127                           ;main.c: 876:     pkt_out[0] = '$';
  2128  00273C  0E24               	movlw	36
  2129  00273E  0100               	movlb	0	; () banked
  2130  002740  6F74               	movwf	_pkt_out& (0+255),b
  2131                           
  2132                           ;main.c: 877:     pkt_out[1] = 'E';
  2133  002742  0E45               	movlw	69
  2134  002744  6F75               	movwf	(_pkt_out+1)& (0+255),b
  2135                           
  2136                           ;main.c: 878:     pkt_out[2] = 'M';
  2137  002746  0E4D               	movlw	77
  2138  002748  6F76               	movwf	(_pkt_out+2)& (0+255),b
  2139                           
  2140                           ;main.c: 879:     pkt_out[3] = 'P';
  2141  00274A  0E50               	movlw	80
  2142  00274C  6F77               	movwf	(_pkt_out+3)& (0+255),b
  2143  00274E                     
  2144                           ; BSR set to: 0
  2145                           ;main.c: 880:     pkt_out[4] = total_empty_slots / 10 + 0x30;
  2146  00274E  C04D  F00D         	movff	_total_empty_slots,___awdiv@dividend
  2147  002752  C04E  F00E         	movff	_total_empty_slots+1,___awdiv@dividend+1
  2148  002756  0E00               	movlw	0
  2149  002758  6E10               	movwf	(___awdiv@divisor+1)^0,c
  2150  00275A  0E0A               	movlw	10
  2151  00275C  6E0F               	movwf	___awdiv@divisor^0,c
  2152  00275E  ECBD  F00F         	call	___awdiv	;wreg free
  2153  002762  500D               	movf	?___awdiv^0,w,c
  2154  002764  0F30               	addlw	48
  2155  002766  0100               	movlb	0	; () banked
  2156  002768  6F78               	movwf	(_pkt_out+4)& (0+255),b
  2157  00276A                     
  2158                           ; BSR set to: 0
  2159                           ;main.c: 881:     pkt_out[5] = total_empty_slots % 10 + 0x30;
  2160  00276A  C04D  F015         	movff	_total_empty_slots,___awmod@dividend
  2161  00276E  C04E  F016         	movff	_total_empty_slots+1,___awmod@dividend+1
  2162  002772  0E00               	movlw	0
  2163  002774  6E18               	movwf	(___awmod@divisor+1)^0,c
  2164  002776  0E0A               	movlw	10
  2165  002778  6E17               	movwf	___awmod@divisor^0,c
  2166  00277A  EC77  F010         	call	___awmod	;wreg free
  2167  00277E  5015               	movf	?___awmod^0,w,c
  2168  002780  0F30               	addlw	48
  2169  002782  0100               	movlb	0	; () banked
  2170  002784  6F79               	movwf	(_pkt_out+5)& (0+255),b
  2171                           
  2172                           ;main.c: 882:     pkt_out[6] = '#';
  2173  002786  0E23               	movlw	35
  2174  002788  6F7A               	movwf	(_pkt_out+6)& (0+255),b
  2175                           
  2176                           ;main.c: 883:     pkt_outsize = 7;
  2177  00278A  0E07               	movlw	7
  2178  00278C  6FCA               	movwf	_pkt_outsize& (0+255),b
  2179  00278E                     
  2180                           ; BSR set to: 0
  2181                           ;main.c: 885:     fill_outbuffer();
  2182  00278E  EC6E  F011         	call	_fill_outbuffer	;wreg free
  2183  002792  0012               	return		;funcret
  2184  002794                     __end_of_send_empty_spaces_packet:
  2185                           	callstack 0
  2186                           
  2187 ;; *************** function _fill_outbuffer *****************
  2188 ;; Defined at:
  2189 ;;		line 429 in file "main.c"
  2190 ;; Parameters:    Size  Location     Type
  2191 ;;		None
  2192 ;; Auto vars:     Size  Location     Type
  2193 ;;  i               2   21[COMRAM] int 
  2194 ;;  i               2   19[COMRAM] int 
  2195 ;; Return value:  Size  Location     Type
  2196 ;;                  1    wreg      void 
  2197 ;; Registers used:
  2198 ;;		wreg, fsr2l, fsr2h, status,2, status,0, cstack
  2199 ;; Tracked objects:
  2200 ;;		On entry : 0/0
  2201 ;;		On exit  : 0/0
  2202 ;;		Unchanged: 0/0
  2203 ;; Data sizes:     COMRAM   BANK0   BANK1   BANK2   BANK3   BANK4   BANK5   BANK6   BANK7   BANK8   BANK9  BANK10  BANK1
      +1  BANK12  BANK13  BANK14  BANK15
  2204 ;;      Params:         0       0       0       0       0       0       0       0       0       0       0       0       
      +0       0       0       0       0
  2205 ;;      Locals:         4       0       0       0       0       0       0       0       0       0       0       0       
      +0       0       0       0       0
  2206 ;;      Temps:          3       0       0       0       0       0       0       0       0       0       0       0       
      +0       0       0       0       0
  2207 ;;      Totals:         7       0       0       0       0       0       0       0       0       0       0       0       
      +0       0       0       0       0
  2208 ;;Total ram usage:        7 bytes
  2209 ;; Hardware stack levels used:    1
  2210 ;; Hardware stack levels required when called:    5
  2211 ;; This function calls:
  2212 ;;		_buf_push
  2213 ;;		_disable_rxtx
  2214 ;;		_enable_rxtx
  2215 ;; This function is called by:
  2216 ;;		_send_packet
  2217 ;;		_send_empty_spaces_packet
  2218 ;; This function uses a non-reentrant model
  2219 ;;
  2220                           
  2221                           	psect	text6
  2222  0022DC                     __ptext6:
  2223                           	callstack 0
  2224  0022DC                     _fill_outbuffer:
  2225                           	callstack 24
  2226  0022DC                     
  2227                           ;main.c: 430:     for (int i = 0; i < pkt_outsize; ++i) {
  2228  0022DC  0E00               	movlw	0
  2229  0022DE  6E15               	movwf	(fill_outbuffer@i+1)^0,c
  2230  0022E0  0E00               	movlw	0
  2231  0022E2  6E14               	movwf	fill_outbuffer@i^0,c
  2232  0022E4  EF85  F011         	goto	l4095
  2233  0022E8                     l4087:
  2234                           
  2235                           ; BSR set to: 0
  2236                           ;main.c: 431:         disable_rxtx();
  2237  0022E8  ECF0  F014         	call	_disable_rxtx	;wreg free
  2238  0022EC                     
  2239                           ;main.c: 432:         buf_push(pkt_out[i], OUTBUF);
  2240  0022EC  0E01               	movlw	1
  2241  0022EE  6E0D               	movwf	buf_push@buf^0,c
  2242  0022F0  0E74               	movlw	low _pkt_out
  2243  0022F2  2414               	addwf	fill_outbuffer@i^0,w,c
  2244  0022F4  6ED9               	movwf	fsr2l,c
  2245  0022F6  0E00               	movlw	high _pkt_out
  2246  0022F8  2015               	addwfc	(fill_outbuffer@i+1)^0,w,c
  2247  0022FA  6EDA               	movwf	fsr2h,c
  2248  0022FC  50DF               	movf	indf2,w,c
  2249  0022FE  ECBA  F011         	call	_buf_push
  2250  002302                     
  2251                           ;main.c: 433:         enable_rxtx();
  2252  002302  ECED  F014         	call	_enable_rxtx	;wreg free
  2253  002306                     
  2254                           ;main.c: 434:     }
  2255  002306  4A14               	infsnz	fill_outbuffer@i^0,f,c
  2256  002308  2A15               	incf	(fill_outbuffer@i+1)^0,f,c
  2257  00230A                     l4095:
  2258  00230A  0100               	movlb	0	; () banked
  2259  00230C  51CA               	movf	_pkt_outsize& (0+255),w,b
  2260  00230E  6E11               	movwf	??_fill_outbuffer^0,c
  2261  002310  6A12               	clrf	(??_fill_outbuffer+1)^0,c
  2262  002312  5011               	movf	??_fill_outbuffer^0,w,c
  2263  002314  5C14               	subwf	fill_outbuffer@i^0,w,c
  2264  002316  5015               	movf	(fill_outbuffer@i+1)^0,w,c
  2265  002318  0A80               	xorlw	128
  2266  00231A  6E13               	movwf	(??_fill_outbuffer+2)^0,c
  2267  00231C  5012               	movf	(??_fill_outbuffer+1)^0,w,c
  2268  00231E  0A80               	xorlw	128
  2269  002320  5813               	subwfb	(??_fill_outbuffer+2)^0,w,c
  2270  002322  A0D8               	btfss	status,0,c
  2271  002324  EF96  F011         	goto	u3711
  2272  002328  EF98  F011         	goto	u3710
  2273  00232C                     u3711:
  2274  00232C  EF74  F011         	goto	l4087
  2275  002330                     u3710:
  2276  002330                     
  2277                           ; BSR set to: 0
  2278                           ;main.c: 435:     buf_push(0x23, OUTBUF);
  2279  002330  0E01               	movlw	1
  2280  002332  6E0D               	movwf	buf_push@buf^0,c
  2281  002334  0E23               	movlw	35
  2282  002336  ECBA  F011         	call	_buf_push
  2283  00233A                     
  2284                           ;main.c: 436:     for (int i = 0; i < 20; ++i) {
  2285  00233A  0E00               	movlw	0
  2286  00233C  6E17               	movwf	(fill_outbuffer@i_776+1)^0,c
  2287  00233E  0E00               	movlw	0
  2288  002340  6E16               	movwf	fill_outbuffer@i_776^0,c
  2289  002342                     l4105:
  2290                           
  2291                           ;main.c: 437:         pkt_out[i] = 0;
  2292  002342  0E74               	movlw	low _pkt_out
  2293  002344  2416               	addwf	fill_outbuffer@i_776^0,w,c
  2294  002346  6ED9               	movwf	fsr2l,c
  2295  002348  0E00               	movlw	high _pkt_out
  2296  00234A  2017               	addwfc	(fill_outbuffer@i_776+1)^0,w,c
  2297  00234C  6EDA               	movwf	fsr2h,c
  2298  00234E  0E00               	movlw	0
  2299  002350  6EDF               	movwf	indf2,c
  2300  002352                     
  2301                           ;main.c: 438:     }
  2302  002352  4A16               	infsnz	fill_outbuffer@i_776^0,f,c
  2303  002354  2A17               	incf	(fill_outbuffer@i_776+1)^0,f,c
  2304  002356  BE17               	btfsc	(fill_outbuffer@i_776+1)^0,7,c
  2305  002358  EFB7  F011         	goto	u3721
  2306  00235C  5017               	movf	(fill_outbuffer@i_776+1)^0,w,c
  2307  00235E  E109               	bnz	u3720
  2308  002360  0E14               	movlw	20
  2309  002362  5C16               	subwf	fill_outbuffer@i_776^0,w,c
  2310  002364  A0D8               	btfss	status,0,c
  2311  002366  EFB7  F011         	goto	u3721
  2312  00236A  EFB9  F011         	goto	u3720
  2313  00236E                     u3721:
  2314  00236E  EFA1  F011         	goto	l4105
  2315  002372                     u3720:
  2316  002372  0012               	return		;funcret
  2317  002374                     __end_of_fill_outbuffer:
  2318                           	callstack 0
  2319                           
  2320 ;; *************** function _buf_push *****************
  2321 ;; Defined at:
  2322 ;;		line 162 in file "main.c"
  2323 ;; Parameters:    Size  Location     Type
  2324 ;;  v               1    wreg     unsigned char 
  2325 ;;  buf             1   12[COMRAM] enum E4993
  2326 ;; Auto vars:     Size  Location     Type
  2327 ;;  v               1   15[COMRAM] unsigned char 
  2328 ;; Return value:  Size  Location     Type
  2329 ;;                  1    wreg      void 
  2330 ;; Registers used:
  2331 ;;		wreg, fsr2l, fsr2h, status,2, status,0
  2332 ;; Tracked objects:
  2333 ;;		On entry : 0/0
  2334 ;;		On exit  : 0/0
  2335 ;;		Unchanged: 0/0
  2336 ;; Data sizes:     COMRAM   BANK0   BANK1   BANK2   BANK3   BANK4   BANK5   BANK6   BANK7   BANK8   BANK9  BANK10  BANK1
      +1  BANK12  BANK13  BANK14  BANK15
  2337 ;;      Params:         1       0       0       0       0       0       0       0       0       0       0       0       
      +0       0       0       0       0
  2338 ;;      Locals:         1       0       0       0       0       0       0       0       0       0       0       0       
      +0       0       0       0       0
  2339 ;;      Temps:          2       0       0       0       0       0       0       0       0       0       0       0       
      +0       0       0       0       0
  2340 ;;      Totals:         4       0       0       0       0       0       0       0       0       0       0       0       
      +0       0       0       0       0
  2341 ;;Total ram usage:        4 bytes
  2342 ;; Hardware stack levels used:    1
  2343 ;; Hardware stack levels required when called:    4
  2344 ;; This function calls:
  2345 ;;		Nothing
  2346 ;; This function is called by:
  2347 ;;		_fill_outbuffer
  2348 ;; This function uses a non-reentrant model
  2349 ;;
  2350                           
  2351                           	psect	text7
  2352  002374                     __ptext7:
  2353                           	callstack 0
  2354  002374                     _buf_push:
  2355                           	callstack 24
  2356                           
  2357                           ;incstack = 0
  2358                           ;buf_push@v stored from wreg
  2359  002374  6E10               	movwf	buf_push@v^0,c
  2360  002376  500D               	movf	buf_push@buf^0,w,c
  2361  002378  A4D8               	btfss	status,2,c
  2362  00237A  EFC1  F011         	goto	u3071
  2363  00237E  EFC3  F011         	goto	u3070
  2364  002382                     u3071:
  2365  002382  EFD6  F011         	goto	l3611
  2366  002386                     u3070:
  2367  002386  0E45               	movlw	low _head
  2368  002388  240D               	addwf	buf_push@buf^0,w,c
  2369  00238A  6ED9               	movwf	fsr2l,c
  2370  00238C  6ADA               	clrf	fsr2h,c
  2371  00238E  0E00               	movlw	high _head
  2372  002390  22DA               	addwfc	fsr2h,f,c
  2373  002392  50DF               	movf	indf2,w,c
  2374  002394  6E0E               	movwf	??_buf_push^0,c
  2375  002396  6A0F               	clrf	(??_buf_push+1)^0,c
  2376  002398  0E00               	movlw	low _inbuf
  2377  00239A  240E               	addwf	??_buf_push^0,w,c
  2378  00239C  6ED9               	movwf	fsr2l,c
  2379  00239E  0E03               	movlw	high _inbuf
  2380  0023A0  200F               	addwfc	(??_buf_push+1)^0,w,c
  2381  0023A2  6EDA               	movwf	fsr2h,c
  2382  0023A4  C010  FFDF         	movff	buf_push@v,indf2
  2383  0023A8  EFE7  F011         	goto	l175
  2384  0023AC                     l3611:
  2385  0023AC  0E45               	movlw	low _head
  2386  0023AE  240D               	addwf	buf_push@buf^0,w,c
  2387  0023B0  6ED9               	movwf	fsr2l,c
  2388  0023B2  6ADA               	clrf	fsr2h,c
  2389  0023B4  0E00               	movlw	high _head
  2390  0023B6  22DA               	addwfc	fsr2h,f,c
  2391  0023B8  50DF               	movf	indf2,w,c
  2392  0023BA  6E0E               	movwf	??_buf_push^0,c
  2393  0023BC  6A0F               	clrf	(??_buf_push+1)^0,c
  2394  0023BE  0E00               	movlw	low _outbuf
  2395  0023C0  240E               	addwf	??_buf_push^0,w,c
  2396  0023C2  6ED9               	movwf	fsr2l,c
  2397  0023C4  0E02               	movlw	high _outbuf
  2398  0023C6  200F               	addwfc	(??_buf_push+1)^0,w,c
  2399  0023C8  6EDA               	movwf	fsr2h,c
  2400  0023CA  C010  FFDF         	movff	buf_push@v,indf2
  2401  0023CE                     l175:
  2402  0023CE  0E45               	movlw	low _head
  2403  0023D0  240D               	addwf	buf_push@buf^0,w,c
  2404  0023D2  6ED9               	movwf	fsr2l,c
  2405  0023D4  6ADA               	clrf	fsr2h,c
  2406  0023D6  0E00               	movlw	high _head
  2407  0023D8  22DA               	addwfc	fsr2h,f,c
  2408  0023DA  2ADF               	incf	indf2,f,c
  2409  0023DC  0E45               	movlw	low _head
  2410  0023DE  240D               	addwf	buf_push@buf^0,w,c
  2411  0023E0  6ED9               	movwf	fsr2l,c
  2412  0023E2  6ADA               	clrf	fsr2h,c
  2413  0023E4  0E00               	movlw	high _head
  2414  0023E6  22DA               	addwfc	fsr2h,f,c
  2415  0023E8  0E80               	movlw	128
  2416  0023EA  18DE               	xorwf	postinc2,w,c
  2417  0023EC  A4D8               	btfss	status,2,c
  2418  0023EE  EFFB  F011         	goto	u3081
  2419  0023F2  EFFD  F011         	goto	u3080
  2420  0023F6                     u3081:
  2421  0023F6  EF05  F012         	goto	l178
  2422  0023FA                     u3080:
  2423  0023FA  0E45               	movlw	low _head
  2424  0023FC  240D               	addwf	buf_push@buf^0,w,c
  2425  0023FE  6ED9               	movwf	fsr2l,c
  2426  002400  6ADA               	clrf	fsr2h,c
  2427  002402  0E00               	movlw	high _head
  2428  002404  22DA               	addwfc	fsr2h,f,c
  2429  002406  0E00               	movlw	0
  2430  002408  6EDF               	movwf	indf2,c
  2431  00240A                     l178:
  2432  00240A  0012               	return		;funcret
  2433  00240C                     __end_of_buf_push:
  2434                           	callstack 0
  2435                           
  2436 ;; *************** function _read_packet *****************
  2437 ;; Defined at:
  2438 ;;		line 384 in file "main.c"
  2439 ;; Parameters:    Size  Location     Type
  2440 ;;		None
  2441 ;; Auto vars:     Size  Location     Type
  2442 ;;		None
  2443 ;; Return value:  Size  Location     Type
  2444 ;;                  1    wreg      void 
  2445 ;; Registers used:
  2446 ;;		wreg, fsr0l, fsr0h, fsr1l, fsr1h, fsr2l, fsr2h, status,2, status,0, prodl, prodh, cstack
  2447 ;; Tracked objects:
  2448 ;;		On entry : 0/0
  2449 ;;		On exit  : 0/0
  2450 ;;		Unchanged: 0/0
  2451 ;; Data sizes:     COMRAM   BANK0   BANK1   BANK2   BANK3   BANK4   BANK5   BANK6   BANK7   BANK8   BANK9  BANK10  BANK1
      +1  BANK12  BANK13  BANK14  BANK15
  2452 ;;      Params:         0       0       0       0       0       0       0       0       0       0       0       0       
      +0       0       0       0       0
  2453 ;;      Locals:         0       0       0       0       0       0       0       0       0       0       0       0       
      +0       0       0       0       0
  2454 ;;      Temps:          0       0       0       0       0       0       0       0       0       0       0       0       
      +0       0       0       0       0
  2455 ;;      Totals:         0       0       0       0       0       0       0       0       0       0       0       0       
      +0       0       0       0       0
  2456 ;;Total ram usage:        0 bytes
  2457 ;; Hardware stack levels used:    1
  2458 ;; Hardware stack levels required when called:    8
  2459 ;; This function calls:
  2460 ;;		_execute_command
  2461 ;;		_licence_to_int
  2462 ;;		_park_spot_to_int
  2463 ;; This function is called by:
  2464 ;;		_main
  2465 ;; This function uses a non-reentrant model
  2466 ;;
  2467                           
  2468                           	psect	text8
  2469  001814                     __ptext8:
  2470                           	callstack 0
  2471  001814                     _read_packet:
  2472                           	callstack 22
  2473  001814                     
  2474                           ;main.c: 385:     if (pkt_valid == 0) return;
  2475  001814  504B               	movf	_pkt_valid^0,w,c
  2476  001816  A4D8               	btfss	status,2,c
  2477  001818  EF10  F00C         	goto	u3861
  2478  00181C  EF12  F00C         	goto	u3860
  2479  001820                     u3861:
  2480  001820  EF14  F00C         	goto	l4235
  2481  001824                     u3860:
  2482  001824  EFF1  F00C         	goto	l259
  2483  001828                     l4235:
  2484                           
  2485                           ;main.c: 388:     if (waiting && pkt_body[0] == 0x47 && pkt_body[1] == 0x4f) {
  2486  001828  504F               	movf	_waiting^0,w,c
  2487  00182A  1050               	iorwf	(_waiting+1)^0,w,c
  2488  00182C  B4D8               	btfsc	status,2,c
  2489  00182E  EF1B  F00C         	goto	u3871
  2490  001832  EF1D  F00C         	goto	u3870
  2491  001836                     u3871:
  2492  001836  EF38  F00C         	goto	l4245
  2493  00183A                     u3870:
  2494  00183A  0E47               	movlw	71
  2495  00183C  0100               	movlb	0	; () banked
  2496  00183E  1988               	xorwf	_pkt_body& (0+255),w,b
  2497  001840  A4D8               	btfss	status,2,c
  2498  001842  EF25  F00C         	goto	u3881
  2499  001846  EF27  F00C         	goto	u3880
  2500  00184A                     u3881:
  2501  00184A  EF38  F00C         	goto	l4245
  2502  00184E                     u3880:
  2503  00184E                     
  2504                           ; BSR set to: 0
  2505  00184E  0E4F               	movlw	79
  2506  001850  1989               	xorwf	(_pkt_body+1)& (0+255),w,b
  2507  001852  A4D8               	btfss	status,2,c
  2508  001854  EF2E  F00C         	goto	u3891
  2509  001858  EF30  F00C         	goto	u3890
  2510  00185C                     u3891:
  2511  00185C  EF38  F00C         	goto	l4245
  2512  001860                     u3890:
  2513  001860                     
  2514                           ; BSR set to: 0
  2515                           ;main.c: 389:         waiting = 0;
  2516  001860  0E00               	movlw	0
  2517  001862  6E50               	movwf	(_waiting+1)^0,c
  2518  001864  0E00               	movlw	0
  2519  001866  6E4F               	movwf	_waiting^0,c
  2520                           
  2521                           ;main.c: 390:         pkt_valid = 0;
  2522  001868  0E00               	movlw	0
  2523  00186A  6E4B               	movwf	_pkt_valid^0,c
  2524  00186C  EFF1  F00C         	goto	l259
  2525  001870                     l4245:
  2526                           
  2527                           ;main.c: 395:     if (pkt_body[0] == 0x45 && pkt_body[1] == 0x4e && pkt_body[2] == 0x44)
      +                           {
  2528  001870  0E45               	movlw	69
  2529  001872  0100               	movlb	0	; () banked
  2530  001874  1988               	xorwf	_pkt_body& (0+255),w,b
  2531  001876  A4D8               	btfss	status,2,c
  2532  001878  EF40  F00C         	goto	u3901
  2533  00187C  EF42  F00C         	goto	u3900
  2534  001880                     u3901:
  2535  001880  EF5C  F00C         	goto	l4255
  2536  001884                     u3900:
  2537  001884                     
  2538                           ; BSR set to: 0
  2539  001884  0E4E               	movlw	78
  2540  001886  1989               	xorwf	(_pkt_body+1)& (0+255),w,b
  2541  001888  A4D8               	btfss	status,2,c
  2542  00188A  EF49  F00C         	goto	u3911
  2543  00188E  EF4B  F00C         	goto	u3910
  2544  001892                     u3911:
  2545  001892  EF5C  F00C         	goto	l4255
  2546  001896                     u3910:
  2547  001896                     
  2548                           ; BSR set to: 0
  2549  001896  0E44               	movlw	68
  2550  001898  198A               	xorwf	(_pkt_body+2)& (0+255),w,b
  2551  00189A  A4D8               	btfss	status,2,c
  2552  00189C  EF52  F00C         	goto	u3921
  2553  0018A0  EF54  F00C         	goto	u3920
  2554  0018A4                     u3921:
  2555  0018A4  EF5C  F00C         	goto	l4255
  2556  0018A8                     u3920:
  2557  0018A8                     
  2558                           ; BSR set to: 0
  2559                           ;main.c: 396:         finished = 1;
  2560  0018A8  0E00               	movlw	0
  2561  0018AA  6FC7               	movwf	(_finished+1)& (0+255),b
  2562  0018AC  0E01               	movlw	1
  2563  0018AE  6FC6               	movwf	_finished& (0+255),b
  2564                           
  2565                           ;main.c: 397:         pkt_valid = 0;
  2566  0018B0  0E00               	movlw	0
  2567  0018B2  6E4B               	movwf	_pkt_valid^0,c
  2568  0018B4  EFF1  F00C         	goto	l259
  2569  0018B8                     l4255:
  2570                           
  2571                           ; BSR set to: 0
  2572                           ;main.c: 402:     if (pkt_body[0] == 0x50 && pkt_body[1] == 0x52 && pkt_body[2] == 0x4b)
      +                           {
  2573  0018B8  0E50               	movlw	80
  2574  0018BA  1988               	xorwf	_pkt_body& (0+255),w,b
  2575  0018BC  A4D8               	btfss	status,2,c
  2576  0018BE  EF63  F00C         	goto	u3931
  2577  0018C2  EF65  F00C         	goto	u3930
  2578  0018C6                     u3931:
  2579  0018C6  EF8B  F00C         	goto	l4265
  2580  0018CA                     u3930:
  2581  0018CA                     
  2582                           ; BSR set to: 0
  2583  0018CA  0E52               	movlw	82
  2584  0018CC  1989               	xorwf	(_pkt_body+1)& (0+255),w,b
  2585  0018CE  A4D8               	btfss	status,2,c
  2586  0018D0  EF6C  F00C         	goto	u3941
  2587  0018D4  EF6E  F00C         	goto	u3940
  2588  0018D8                     u3941:
  2589  0018D8  EF8B  F00C         	goto	l4265
  2590  0018DC                     u3940:
  2591  0018DC                     
  2592                           ; BSR set to: 0
  2593  0018DC  0E4B               	movlw	75
  2594  0018DE  198A               	xorwf	(_pkt_body+2)& (0+255),w,b
  2595  0018E0  A4D8               	btfss	status,2,c
  2596  0018E2  EF75  F00C         	goto	u3951
  2597  0018E6  EF77  F00C         	goto	u3950
  2598  0018EA                     u3951:
  2599  0018EA  EF8B  F00C         	goto	l4265
  2600  0018EE                     u3950:
  2601  0018EE                     
  2602                           ; BSR set to: 0
  2603                           ;main.c: 403:         licence_to_int(pkt_body[3], pkt_body[4], pkt_body[5]);
  2604  0018EE  C08C  F013         	movff	_pkt_body+4,licence_to_int@b
  2605  0018F2  C08D  F014         	movff	_pkt_body+5,licence_to_int@c
  2606  0018F6  518B               	movf	(_pkt_body+3)& (0+255),w,b
  2607  0018F8  EC09  F013         	call	_licence_to_int
  2608  0018FC                     
  2609                           ;main.c: 404:         execute_command('p', licence_number, -1);
  2610  0018FC  C0C4  F1F0         	movff	_licence_number,execute_command@plateNumber
  2611  001900  C0C5  F1F1         	movff	_licence_number+1,execute_command@plateNumber+1
  2612  001904  0EFF               	movlw	255
  2613  001906  0101               	movlb	1	; () banked
  2614  001908  6FF3               	movwf	(execute_command@slotNumber+1)& (0+255),b
  2615  00190A  69F2               	setf	execute_command@slotNumber& (0+255),b
  2616  00190C  0E70               	movlw	112
  2617  00190E  EC1F  F010         	call	_execute_command
  2618                           
  2619                           ;main.c: 405:     }
  2620  001912  EFEF  F00C         	goto	l4287
  2621  001916                     l4265:
  2622                           
  2623                           ; BSR set to: 0
  2624  001916  0E45               	movlw	69
  2625  001918  1988               	xorwf	_pkt_body& (0+255),w,b
  2626  00191A  A4D8               	btfss	status,2,c
  2627  00191C  EF92  F00C         	goto	u3961
  2628  001920  EF94  F00C         	goto	u3960
  2629  001924                     u3961:
  2630  001924  EFBA  F00C         	goto	l4275
  2631  001928                     u3960:
  2632  001928                     
  2633                           ; BSR set to: 0
  2634  001928  0E58               	movlw	88
  2635  00192A  1989               	xorwf	(_pkt_body+1)& (0+255),w,b
  2636  00192C  A4D8               	btfss	status,2,c
  2637  00192E  EF9B  F00C         	goto	u3971
  2638  001932  EF9D  F00C         	goto	u3970
  2639  001936                     u3971:
  2640  001936  EFBA  F00C         	goto	l4275
  2641  00193A                     u3970:
  2642  00193A                     
  2643                           ; BSR set to: 0
  2644  00193A  0E54               	movlw	84
  2645  00193C  198A               	xorwf	(_pkt_body+2)& (0+255),w,b
  2646  00193E  A4D8               	btfss	status,2,c
  2647  001940  EFA4  F00C         	goto	u3981
  2648  001944  EFA6  F00C         	goto	u3980
  2649  001948                     u3981:
  2650  001948  EFBA  F00C         	goto	l4275
  2651  00194C                     u3980:
  2652  00194C                     
  2653                           ; BSR set to: 0
  2654                           ;main.c: 409:         licence_to_int(pkt_body[3], pkt_body[4], pkt_body[5]);
  2655  00194C  C08C  F013         	movff	_pkt_body+4,licence_to_int@b
  2656  001950  C08D  F014         	movff	_pkt_body+5,licence_to_int@c
  2657  001954  518B               	movf	(_pkt_body+3)& (0+255),w,b
  2658  001956  EC09  F013         	call	_licence_to_int
  2659  00195A                     
  2660                           ;main.c: 410:         execute_command('e', licence_number, -1);
  2661  00195A  C0C4  F1F0         	movff	_licence_number,execute_command@plateNumber
  2662  00195E  C0C5  F1F1         	movff	_licence_number+1,execute_command@plateNumber+1
  2663  001962  0EFF               	movlw	255
  2664  001964  0101               	movlb	1	; () banked
  2665  001966  6FF3               	movwf	(execute_command@slotNumber+1)& (0+255),b
  2666  001968  69F2               	setf	execute_command@slotNumber& (0+255),b
  2667  00196A  0E65               	movlw	101
  2668  00196C  EC1F  F010         	call	_execute_command
  2669                           
  2670                           ;main.c: 411:     }
  2671  001970  EFEF  F00C         	goto	l4287
  2672  001974                     l4275:
  2673                           
  2674                           ; BSR set to: 0
  2675  001974  0E53               	movlw	83
  2676  001976  1988               	xorwf	_pkt_body& (0+255),w,b
  2677  001978  A4D8               	btfss	status,2,c
  2678  00197A  EFC1  F00C         	goto	u3991
  2679  00197E  EFC3  F00C         	goto	u3990
  2680  001982                     u3991:
  2681  001982  EFEF  F00C         	goto	l4287
  2682  001986                     u3990:
  2683  001986                     
  2684                           ; BSR set to: 0
  2685  001986  0E55               	movlw	85
  2686  001988  1989               	xorwf	(_pkt_body+1)& (0+255),w,b
  2687  00198A  A4D8               	btfss	status,2,c
  2688  00198C  EFCA  F00C         	goto	u4001
  2689  001990  EFCC  F00C         	goto	u4000
  2690  001994                     u4001:
  2691  001994  EFEF  F00C         	goto	l4287
  2692  001998                     u4000:
  2693  001998                     
  2694                           ; BSR set to: 0
  2695  001998  0E42               	movlw	66
  2696  00199A  198A               	xorwf	(_pkt_body+2)& (0+255),w,b
  2697  00199C  A4D8               	btfss	status,2,c
  2698  00199E  EFD3  F00C         	goto	u4011
  2699  0019A2  EFD5  F00C         	goto	u4010
  2700  0019A6                     u4011:
  2701  0019A6  EFEF  F00C         	goto	l4287
  2702  0019AA                     u4010:
  2703  0019AA                     
  2704                           ; BSR set to: 0
  2705                           ;main.c: 415:         licence_to_int(pkt_body[3], pkt_body[4], pkt_body[5]);
  2706  0019AA  C08C  F013         	movff	_pkt_body+4,licence_to_int@b
  2707  0019AE  C08D  F014         	movff	_pkt_body+5,licence_to_int@c
  2708  0019B2  518B               	movf	(_pkt_body+3)& (0+255),w,b
  2709  0019B4  EC09  F013         	call	_licence_to_int
  2710  0019B8                     
  2711                           ;main.c: 416:         level = pkt_body[6];
  2712  0019B8  C08E  F051         	movff	_pkt_body+6,_level
  2713                           
  2714                           ;main.c: 417:         park_spot_to_int(pkt_body[7], pkt_body[8]);
  2715  0019BC  C090  F013         	movff	_pkt_body+8,park_spot_to_int@b
  2716  0019C0  0100               	movlb	0	; () banked
  2717  0019C2  518F               	movf	(_pkt_body+7)& (0+255),w,b
  2718  0019C4  ECCA  F013         	call	_park_spot_to_int
  2719  0019C8                     
  2720                           ;main.c: 418:         execute_command('s', licence_number, park_spot);
  2721  0019C8  C0C4  F1F0         	movff	_licence_number,execute_command@plateNumber
  2722  0019CC  C0C5  F1F1         	movff	_licence_number+1,execute_command@plateNumber+1
  2723  0019D0  C0C2  F1F2         	movff	_park_spot,execute_command@slotNumber
  2724  0019D4  C0C3  F1F3         	movff	_park_spot+1,execute_command@slotNumber+1
  2725  0019D8  0E73               	movlw	115
  2726  0019DA  EC1F  F010         	call	_execute_command
  2727  0019DE                     l4287:
  2728                           
  2729                           ;main.c: 421:     pkt_valid = 0;
  2730  0019DE  0E00               	movlw	0
  2731  0019E0  6E4B               	movwf	_pkt_valid^0,c
  2732  0019E2                     l259:
  2733  0019E2  0012               	return		;funcret
  2734  0019E4                     __end_of_read_packet:
  2735                           	callstack 0
  2736                           
  2737 ;; *************** function _park_spot_to_int *****************
  2738 ;; Defined at:
  2739 ;;		line 536 in file "main.c"
  2740 ;; Parameters:    Size  Location     Type
  2741 ;;  a               1    wreg     unsigned char 
  2742 ;;  b               1   18[COMRAM] unsigned char 
  2743 ;; Auto vars:     Size  Location     Type
  2744 ;;  a               1   23[COMRAM] unsigned char 
  2745 ;; Return value:  Size  Location     Type
  2746 ;;                  1    wreg      void 
  2747 ;; Registers used:
  2748 ;;		wreg, status,2, status,0, prodl, prodh, cstack
  2749 ;; Tracked objects:
  2750 ;;		On entry : 0/0
  2751 ;;		On exit  : 0/0
  2752 ;;		Unchanged: 0/0
  2753 ;; Data sizes:     COMRAM   BANK0   BANK1   BANK2   BANK3   BANK4   BANK5   BANK6   BANK7   BANK8   BANK9  BANK10  BANK1
      +1  BANK12  BANK13  BANK14  BANK15
  2754 ;;      Params:         1       0       0       0       0       0       0       0       0       0       0       0       
      +0       0       0       0       0
  2755 ;;      Locals:         1       0       0       0       0       0       0       0       0       0       0       0       
      +0       0       0       0       0
  2756 ;;      Temps:          4       0       0       0       0       0       0       0       0       0       0       0       
      +0       0       0       0       0
  2757 ;;      Totals:         6       0       0       0       0       0       0       0       0       0       0       0       
      +0       0       0       0       0
  2758 ;;Total ram usage:        6 bytes
  2759 ;; Hardware stack levels used:    1
  2760 ;; Hardware stack levels required when called:    5
  2761 ;; This function calls:
  2762 ;;		___wmul
  2763 ;; This function is called by:
  2764 ;;		_read_packet
  2765 ;; This function uses a non-reentrant model
  2766 ;;
  2767                           
  2768                           	psect	text9
  2769  002794                     __ptext9:
  2770                           	callstack 0
  2771  002794                     _park_spot_to_int:
  2772                           	callstack 24
  2773                           
  2774                           ;incstack = 0
  2775                           ;park_spot_to_int@a stored from wreg
  2776  002794  6E18               	movwf	park_spot_to_int@a^0,c
  2777  002796                     
  2778                           ;main.c: 537:     park_spot = 0;
  2779  002796  0E00               	movlw	0
  2780  002798  0100               	movlb	0	; () banked
  2781  00279A  6FC3               	movwf	(_park_spot+1)& (0+255),b
  2782  00279C  0E00               	movlw	0
  2783  00279E  6FC2               	movwf	_park_spot& (0+255),b
  2784  0027A0                     
  2785                           ; BSR set to: 0
  2786                           ;main.c: 538:     park_spot += (a - '0') * 10;
  2787  0027A0  0ED0               	movlw	208
  2788  0027A2  2418               	addwf	park_spot_to_int@a^0,w,c
  2789  0027A4  6E0D               	movwf	___wmul@multiplier^0,c
  2790  0027A6  6A0E               	clrf	(___wmul@multiplier+1)^0,c
  2791  0027A8  0EFF               	movlw	255
  2792  0027AA  220E               	addwfc	(___wmul@multiplier+1)^0,f,c
  2793  0027AC  0E00               	movlw	0
  2794  0027AE  6E10               	movwf	(___wmul@multiplicand+1)^0,c
  2795  0027B0  0E0A               	movlw	10
  2796  0027B2  6E0F               	movwf	___wmul@multiplicand^0,c
  2797  0027B4  ECA8  F014         	call	___wmul	;wreg free
  2798  0027B8  500D               	movf	?___wmul^0,w,c
  2799  0027BA  0100               	movlb	0	; () banked
  2800  0027BC  27C2               	addwf	_park_spot& (0+255),f,b
  2801  0027BE  500E               	movf	(?___wmul+1)^0,w,c
  2802  0027C0  23C3               	addwfc	(_park_spot+1)& (0+255),f,b
  2803  0027C2                     
  2804                           ; BSR set to: 0
  2805                           ;main.c: 539:     park_spot += (b - '0');
  2806  0027C2  0ED0               	movlw	208
  2807  0027C4  6E14               	movwf	??_park_spot_to_int^0,c
  2808  0027C6  0EFF               	movlw	255
  2809  0027C8  6E15               	movwf	(??_park_spot_to_int+1)^0,c
  2810  0027CA  5013               	movf	park_spot_to_int@b^0,w,c
  2811  0027CC  6E16               	movwf	(??_park_spot_to_int+2)^0,c
  2812  0027CE  6A17               	clrf	(??_park_spot_to_int+3)^0,c
  2813  0027D0  5014               	movf	??_park_spot_to_int^0,w,c
  2814  0027D2  2616               	addwf	(??_park_spot_to_int+2)^0,f,c
  2815  0027D4  5015               	movf	(??_park_spot_to_int+1)^0,w,c
  2816  0027D6  2217               	addwfc	(??_park_spot_to_int+3)^0,f,c
  2817  0027D8  5016               	movf	(??_park_spot_to_int+2)^0,w,c
  2818  0027DA  27C2               	addwf	_park_spot& (0+255),f,b
  2819  0027DC  5017               	movf	(??_park_spot_to_int+3)^0,w,c
  2820  0027DE  23C3               	addwfc	(_park_spot+1)& (0+255),f,b
  2821  0027E0                     
  2822                           ; BSR set to: 0
  2823  0027E0  0012               	return		;funcret
  2824  0027E2                     __end_of_park_spot_to_int:
  2825                           	callstack 0
  2826                           
  2827 ;; *************** function _licence_to_int *****************
  2828 ;; Defined at:
  2829 ;;		line 528 in file "main.c"
  2830 ;; Parameters:    Size  Location     Type
  2831 ;;  a               1    wreg     unsigned char 
  2832 ;;  b               1   18[COMRAM] unsigned char 
  2833 ;;  c               1   19[COMRAM] unsigned char 
  2834 ;; Auto vars:     Size  Location     Type
  2835 ;;  a               1   24[COMRAM] unsigned char 
  2836 ;; Return value:  Size  Location     Type
  2837 ;;                  1    wreg      void 
  2838 ;; Registers used:
  2839 ;;		wreg, status,2, status,0, prodl, prodh, cstack
  2840 ;; Tracked objects:
  2841 ;;		On entry : 0/0
  2842 ;;		On exit  : 0/0
  2843 ;;		Unchanged: 0/0
  2844 ;; Data sizes:     COMRAM   BANK0   BANK1   BANK2   BANK3   BANK4   BANK5   BANK6   BANK7   BANK8   BANK9  BANK10  BANK1
      +1  BANK12  BANK13  BANK14  BANK15
  2845 ;;      Params:         2       0       0       0       0       0       0       0       0       0       0       0       
      +0       0       0       0       0
  2846 ;;      Locals:         1       0       0       0       0       0       0       0       0       0       0       0       
      +0       0       0       0       0
  2847 ;;      Temps:          4       0       0       0       0       0       0       0       0       0       0       0       
      +0       0       0       0       0
  2848 ;;      Totals:         7       0       0       0       0       0       0       0       0       0       0       0       
      +0       0       0       0       0
  2849 ;;Total ram usage:        7 bytes
  2850 ;; Hardware stack levels used:    1
  2851 ;; Hardware stack levels required when called:    5
  2852 ;; This function calls:
  2853 ;;		___wmul
  2854 ;; This function is called by:
  2855 ;;		_read_packet
  2856 ;; This function uses a non-reentrant model
  2857 ;;
  2858                           
  2859                           	psect	text10
  2860  002612                     __ptext10:
  2861                           	callstack 0
  2862  002612                     _licence_to_int:
  2863                           	callstack 24
  2864                           
  2865                           ; BSR set to: 0
  2866                           ;incstack = 0
  2867                           ;licence_to_int@a stored from wreg
  2868  002612  6E19               	movwf	licence_to_int@a^0,c
  2869  002614                     
  2870                           ;main.c: 529:     licence_number = 0;
  2871  002614  0E00               	movlw	0
  2872  002616  0100               	movlb	0	; () banked
  2873  002618  6FC5               	movwf	(_licence_number+1)& (0+255),b
  2874  00261A  0E00               	movlw	0
  2875  00261C  6FC4               	movwf	_licence_number& (0+255),b
  2876  00261E                     
  2877                           ; BSR set to: 0
  2878                           ;main.c: 530:     licence_number += (a - '0') * 100;
  2879  00261E  0ED0               	movlw	208
  2880  002620  2419               	addwf	licence_to_int@a^0,w,c
  2881  002622  6E0D               	movwf	___wmul@multiplier^0,c
  2882  002624  6A0E               	clrf	(___wmul@multiplier+1)^0,c
  2883  002626  0EFF               	movlw	255
  2884  002628  220E               	addwfc	(___wmul@multiplier+1)^0,f,c
  2885  00262A  0E00               	movlw	0
  2886  00262C  6E10               	movwf	(___wmul@multiplicand+1)^0,c
  2887  00262E  0E64               	movlw	100
  2888  002630  6E0F               	movwf	___wmul@multiplicand^0,c
  2889  002632  ECA8  F014         	call	___wmul	;wreg free
  2890  002636  500D               	movf	?___wmul^0,w,c
  2891  002638  0100               	movlb	0	; () banked
  2892  00263A  27C4               	addwf	_licence_number& (0+255),f,b
  2893  00263C  500E               	movf	(?___wmul+1)^0,w,c
  2894  00263E  23C5               	addwfc	(_licence_number+1)& (0+255),f,b
  2895  002640                     
  2896                           ; BSR set to: 0
  2897                           ;main.c: 531:     licence_number += (b - '0') * 10;
  2898  002640  0ED0               	movlw	208
  2899  002642  2413               	addwf	licence_to_int@b^0,w,c
  2900  002644  6E0D               	movwf	___wmul@multiplier^0,c
  2901  002646  6A0E               	clrf	(___wmul@multiplier+1)^0,c
  2902  002648  0EFF               	movlw	255
  2903  00264A  220E               	addwfc	(___wmul@multiplier+1)^0,f,c
  2904  00264C  0E00               	movlw	0
  2905  00264E  6E10               	movwf	(___wmul@multiplicand+1)^0,c
  2906  002650  0E0A               	movlw	10
  2907  002652  6E0F               	movwf	___wmul@multiplicand^0,c
  2908  002654  ECA8  F014         	call	___wmul	;wreg free
  2909  002658  500D               	movf	?___wmul^0,w,c
  2910  00265A  0100               	movlb	0	; () banked
  2911  00265C  27C4               	addwf	_licence_number& (0+255),f,b
  2912  00265E  500E               	movf	(?___wmul+1)^0,w,c
  2913  002660  23C5               	addwfc	(_licence_number+1)& (0+255),f,b
  2914  002662                     
  2915                           ; BSR set to: 0
  2916                           ;main.c: 532:     licence_number += (c - '0');
  2917  002662  0ED0               	movlw	208
  2918  002664  6E15               	movwf	??_licence_to_int^0,c
  2919  002666  0EFF               	movlw	255
  2920  002668  6E16               	movwf	(??_licence_to_int+1)^0,c
  2921  00266A  5014               	movf	licence_to_int@c^0,w,c
  2922  00266C  6E17               	movwf	(??_licence_to_int+2)^0,c
  2923  00266E  6A18               	clrf	(??_licence_to_int+3)^0,c
  2924  002670  5015               	movf	??_licence_to_int^0,w,c
  2925  002672  2617               	addwf	(??_licence_to_int+2)^0,f,c
  2926  002674  5016               	movf	(??_licence_to_int+1)^0,w,c
  2927  002676  2218               	addwfc	(??_licence_to_int+3)^0,f,c
  2928  002678  5017               	movf	(??_licence_to_int+2)^0,w,c
  2929  00267A  27C4               	addwf	_licence_number& (0+255),f,b
  2930  00267C  5018               	movf	(??_licence_to_int+3)^0,w,c
  2931  00267E  23C5               	addwfc	(_licence_number+1)& (0+255),f,b
  2932  002680                     
  2933                           ; BSR set to: 0
  2934  002680  0012               	return		;funcret
  2935  002682                     __end_of_licence_to_int:
  2936                           	callstack 0
  2937                           
  2938 ;; *************** function _execute_command *****************
  2939 ;; Defined at:
  2940 ;;		line 855 in file "main.c"
  2941 ;; Parameters:    Size  Location     Type
  2942 ;;  message         1    wreg     unsigned char 
  2943 ;;  plateNumber     2    0[BANK1 ] int 
  2944 ;;  slotNumber      2    2[BANK1 ] int 
  2945 ;; Auto vars:     Size  Location     Type
  2946 ;;  message         1   65[COMRAM] unsigned char 
  2947 ;; Return value:  Size  Location     Type
  2948 ;;                  1    wreg      void 
  2949 ;; Registers used:
  2950 ;;		wreg, fsr0l, fsr0h, fsr1l, fsr1h, fsr2l, fsr2h, status,2, status,0, prodl, prodh, cstack
  2951 ;; Tracked objects:
  2952 ;;		On entry : 0/0
  2953 ;;		On exit  : 0/0
  2954 ;;		Unchanged: 0/0
  2955 ;; Data sizes:     COMRAM   BANK0   BANK1   BANK2   BANK3   BANK4   BANK5   BANK6   BANK7   BANK8   BANK9  BANK10  BANK1
      +1  BANK12  BANK13  BANK14  BANK15
  2956 ;;      Params:         0       0       4       0       0       0       0       0       0       0       0       0       
      +0       0       0       0       0
  2957 ;;      Locals:         1       0       0       0       0       0       0       0       0       0       0       0       
      +0       0       0       0       0
  2958 ;;      Temps:          0       0       2       0       0       0       0       0       0       0       0       0       
      +0       0       0       0       0
  2959 ;;      Totals:         1       0       6       0       0       0       0       0       0       0       0       0       
      +0       0       0       0       0
  2960 ;;Total ram usage:        7 bytes
  2961 ;; Hardware stack levels used:    1
  2962 ;; Hardware stack levels required when called:    7
  2963 ;; This function calls:
  2964 ;;		_exit
  2965 ;;		_park_the_car
  2966 ;;		_reserve_the_lot
  2967 ;; This function is called by:
  2968 ;;		_read_packet
  2969 ;; This function uses a non-reentrant model
  2970 ;;
  2971                           
  2972                           	psect	text11
  2973  00203E                     __ptext11:
  2974                           	callstack 0
  2975  00203E                     _execute_command:
  2976                           	callstack 22
  2977                           
  2978                           ; BSR set to: 0
  2979                           ;incstack = 0
  2980                           ;execute_command@message stored from wreg
  2981  00203E  6E42               	movwf	execute_command@message^0,c
  2982  002040                     
  2983                           ;main.c: 856:     if(message == 'p'){
  2984  002040  0E70               	movlw	112
  2985  002042  1842               	xorwf	execute_command@message^0,w,c
  2986  002044  A4D8               	btfss	status,2,c
  2987  002046  EF27  F010         	goto	u3661
  2988  00204A  EF29  F010         	goto	u3660
  2989  00204E                     u3661:
  2990  00204E  EF2F  F010         	goto	l4067
  2991  002052                     u3660:
  2992  002052                     
  2993                           ;main.c: 857:         park_the_car(plateNumber);
  2994  002052  C1F0  F019         	movff	execute_command@plateNumber,park_the_car@carToPark
  2995  002056  C1F1  F01A         	movff	execute_command@plateNumber+1,park_the_car@carToPark+1
  2996  00205A  EC9A  F003         	call	_park_the_car	;wreg free
  2997  00205E                     l4067:
  2998                           
  2999                           ;main.c: 860:     if(message == 'e' && total_empty_slots <= 40){
  3000  00205E  0E65               	movlw	101
  3001  002060  1842               	xorwf	execute_command@message^0,w,c
  3002  002062  A4D8               	btfss	status,2,c
  3003  002064  EF36  F010         	goto	u3671
  3004  002068  EF38  F010         	goto	u3670
  3005  00206C                     u3671:
  3006  00206C  EF4C  F010         	goto	l4073
  3007  002070                     u3670:
  3008  002070  BE4E               	btfsc	(_total_empty_slots+1)^0,7,c
  3009  002072  EF46  F010         	goto	u3680
  3010  002076  504E               	movf	(_total_empty_slots+1)^0,w,c
  3011  002078  E107               	bnz	u3681
  3012  00207A  0E29               	movlw	41
  3013  00207C  5C4D               	subwf	_total_empty_slots^0,w,c
  3014  00207E  B0D8               	btfsc	status,0,c
  3015  002080  EF44  F010         	goto	u3681
  3016  002084  EF46  F010         	goto	u3680
  3017  002088                     u3681:
  3018  002088  EF4C  F010         	goto	l4073
  3019  00208C                     u3680:
  3020  00208C                     
  3021                           ;main.c: 861:         exit(plateNumber);
  3022  00208C  C1F0  F019         	movff	execute_command@plateNumber,exit@carToExit
  3023  002090  C1F1  F01A         	movff	execute_command@plateNumber+1,exit@carToExit+1
  3024  002094  EC09  F000         	call	_exit	;wreg free
  3025  002098                     l4073:
  3026                           
  3027                           ;main.c: 863:     if(message == 's'){
  3028  002098  0E73               	movlw	115
  3029  00209A  1842               	xorwf	execute_command@message^0,w,c
  3030  00209C  A4D8               	btfss	status,2,c
  3031  00209E  EF53  F010         	goto	u3691
  3032  0020A2  EF55  F010         	goto	u3690
  3033  0020A6                     u3691:
  3034  0020A6  EF76  F010         	goto	l390
  3035  0020AA                     u3690:
  3036  0020AA                     
  3037                           ;main.c: 864:         if(total_empty_slots - empty_reserved_slots > 0){
  3038  0020AA  0100               	movlb	0	; () banked
  3039  0020AC  51A0               	movf	_empty_reserved_slots& (0+255),w,b
  3040  0020AE  5C4D               	subwf	_total_empty_slots^0,w,c
  3041  0020B0  0101               	movlb	1	; () banked
  3042  0020B2  6FF4               	movwf	??_execute_command& (0+255),b
  3043  0020B4  0100               	movlb	0	; () banked
  3044  0020B6  51A1               	movf	(_empty_reserved_slots+1)& (0+255),w,b
  3045  0020B8  584E               	subwfb	(_total_empty_slots+1)^0,w,c
  3046  0020BA  0101               	movlb	1	; () banked
  3047  0020BC  6FF5               	movwf	(??_execute_command+1)& (0+255),b
  3048  0020BE  BFF5               	btfsc	(??_execute_command+1)& (0+255),7,b
  3049  0020C0  EF6A  F010         	goto	u3701
  3050  0020C4  51F5               	movf	(??_execute_command+1)& (0+255),w,b
  3051  0020C6  E108               	bnz	u3700
  3052  0020C8  05F4               	decf	??_execute_command& (0+255),w,b
  3053  0020CA  A0D8               	btfss	status,0,c
  3054  0020CC  EF6A  F010         	goto	u3701
  3055  0020D0  EF6C  F010         	goto	u3700
  3056  0020D4                     u3701:
  3057  0020D4  EF76  F010         	goto	l390
  3058  0020D8                     u3700:
  3059  0020D8                     
  3060                           ; BSR set to: 1
  3061                           ;main.c: 865:             reserve_the_lot(plateNumber, slotNumber);
  3062  0020D8  C1F0  F019         	movff	execute_command@plateNumber,reserve_the_lot@carToReserve
  3063  0020DC  C1F1  F01A         	movff	execute_command@plateNumber+1,reserve_the_lot@carToReserve+1
  3064  0020E0  C1F2  F01B         	movff	execute_command@slotNumber,reserve_the_lot@slotNumber
  3065  0020E4  C1F3  F01C         	movff	execute_command@slotNumber+1,reserve_the_lot@slotNumber+1
  3066  0020E8  EC9F  F006         	call	_reserve_the_lot	;wreg free
  3067  0020EC                     l390:
  3068  0020EC  0012               	return		;funcret
  3069  0020EE                     __end_of_execute_command:
  3070                           	callstack 0
  3071                           
  3072 ;; *************** function _reserve_the_lot *****************
  3073 ;; Defined at:
  3074 ;;		line 671 in file "main.c"
  3075 ;; Parameters:    Size  Location     Type
  3076 ;;  carToReserve    2   24[COMRAM] int 
  3077 ;;  slotNumber      2   26[COMRAM] int 
  3078 ;; Auto vars:     Size  Location     Type
  3079 ;;  msg             8   34[COMRAM] struct out_msg
  3080 ;;  successful_r    2   32[COMRAM] int 
  3081 ;; Return value:  Size  Location     Type
  3082 ;;                  1    wreg      void 
  3083 ;; Registers used:
  3084 ;;		wreg, fsr0l, fsr0h, fsr1l, fsr1h, fsr2l, fsr2h, status,2, status,0, prodl, prodh, cstack
  3085 ;; Tracked objects:
  3086 ;;		On entry : 0/0
  3087 ;;		On exit  : 0/0
  3088 ;;		Unchanged: 0/0
  3089 ;; Data sizes:     COMRAM   BANK0   BANK1   BANK2   BANK3   BANK4   BANK5   BANK6   BANK7   BANK8   BANK9  BANK10  BANK1
      +1  BANK12  BANK13  BANK14  BANK15
  3090 ;;      Params:         4       0       0       0       0       0       0       0       0       0       0       0       
      +0       0       0       0       0
  3091 ;;      Locals:        10       0       0       0       0       0       0       0       0       0       0       0       
      +0       0       0       0       0
  3092 ;;      Temps:          4       0       0       0       0       0       0       0       0       0       0       0       
      +0       0       0       0       0
  3093 ;;      Totals:        18       0       0       0       0       0       0       0       0       0       0       0       
      +0       0       0       0       0
  3094 ;;Total ram usage:       18 bytes
  3095 ;; Hardware stack levels used:    1
  3096 ;; Hardware stack levels required when called:    5
  3097 ;; This function calls:
  3098 ;;		___wmul
  3099 ;;		_push_msg_queue
  3100 ;; This function is called by:
  3101 ;;		_execute_command
  3102 ;; This function uses a non-reentrant model
  3103 ;;
  3104                           
  3105                           	psect	text12
  3106  000D3E                     __ptext12:
  3107                           	callstack 0
  3108  000D3E                     _reserve_the_lot:
  3109                           	callstack 23
  3110  000D3E                     
  3111                           ;main.c: 673:     int successful_reservation = 0;
  3112  000D3E  0E00               	movlw	0
  3113  000D40  6E22               	movwf	(reserve_the_lot@successful_reservation+1)^0,c
  3114  000D42  0E00               	movlw	0
  3115  000D44  6E21               	movwf	reserve_the_lot@successful_reservation^0,c
  3116                           
  3117                           ;main.c: 674:     switch (level){
  3118  000D46  EF0B  F009         	goto	l3827
  3119  000D4A                     l3753:
  3120                           
  3121                           ;main.c: 676:             if(parkA[slotNumber-1].plateNumber == -1 && parkA[slotNumber-1
      +                          ].isReserved == -1){
  3122  000D4A  C01B  F00D         	movff	reserve_the_lot@slotNumber,___wmul@multiplier
  3123  000D4E  C01C  F00E         	movff	reserve_the_lot@slotNumber+1,___wmul@multiplier+1
  3124  000D52  0E00               	movlw	0
  3125  000D54  6E10               	movwf	(___wmul@multiplicand+1)^0,c
  3126  000D56  0E06               	movlw	6
  3127  000D58  6E0F               	movwf	___wmul@multiplicand^0,c
  3128  000D5A  ECA8  F014         	call	___wmul	;wreg free
  3129  000D5E  0EAE               	movlw	low (_parkA+65530)
  3130  000D60  240D               	addwf	?___wmul^0,w,c
  3131  000D62  6ED9               	movwf	fsr2l,c
  3132  000D64  0E01               	movlw	high (_parkA+65530)
  3133  000D66  200E               	addwfc	(?___wmul+1)^0,w,c
  3134  000D68  6EDA               	movwf	fsr2h,c
  3135  000D6A  28DE               	incf	postinc2,w,c
  3136  000D6C  E106               	bnz	u3291
  3137  000D6E  28DE               	incf	postinc2,w,c
  3138  000D70  A4D8               	btfss	status,2,c
  3139  000D72  EFBD  F006         	goto	u3291
  3140  000D76  EFBF  F006         	goto	u3290
  3141  000D7A                     u3291:
  3142  000D7A  EF28  F009         	goto	l3829
  3143  000D7E                     u3290:
  3144  000D7E  C01B  F00D         	movff	reserve_the_lot@slotNumber,___wmul@multiplier
  3145  000D82  C01C  F00E         	movff	reserve_the_lot@slotNumber+1,___wmul@multiplier+1
  3146  000D86  0E00               	movlw	0
  3147  000D88  6E10               	movwf	(___wmul@multiplicand+1)^0,c
  3148  000D8A  0E06               	movlw	6
  3149  000D8C  6E0F               	movwf	___wmul@multiplicand^0,c
  3150  000D8E  ECA8  F014         	call	___wmul	;wreg free
  3151  000D92  0EB0               	movlw	low (_parkA+65532)
  3152  000D94  240D               	addwf	?___wmul^0,w,c
  3153  000D96  6ED9               	movwf	fsr2l,c
  3154  000D98  0E01               	movlw	high (_parkA+65532)
  3155  000D9A  200E               	addwfc	(?___wmul+1)^0,w,c
  3156  000D9C  6EDA               	movwf	fsr2h,c
  3157  000D9E  28DE               	incf	postinc2,w,c
  3158  000DA0  E106               	bnz	u3301
  3159  000DA2  28DE               	incf	postinc2,w,c
  3160  000DA4  A4D8               	btfss	status,2,c
  3161  000DA6  EFD7  F006         	goto	u3301
  3162  000DAA  EFD9  F006         	goto	u3300
  3163  000DAE                     u3301:
  3164  000DAE  EF28  F009         	goto	l3829
  3165  000DB2                     u3300:
  3166  000DB2                     
  3167                           ;main.c: 677:                 parkA[slotNumber-1].isReserved = carToReserve;
  3168  000DB2  C01B  F00D         	movff	reserve_the_lot@slotNumber,___wmul@multiplier
  3169  000DB6  C01C  F00E         	movff	reserve_the_lot@slotNumber+1,___wmul@multiplier+1
  3170  000DBA  0E00               	movlw	0
  3171  000DBC  6E10               	movwf	(___wmul@multiplicand+1)^0,c
  3172  000DBE  0E06               	movlw	6
  3173  000DC0  6E0F               	movwf	___wmul@multiplicand^0,c
  3174  000DC2  ECA8  F014         	call	___wmul	;wreg free
  3175  000DC6  0EB0               	movlw	low (_parkA+65532)
  3176  000DC8  240D               	addwf	?___wmul^0,w,c
  3177  000DCA  6ED9               	movwf	fsr2l,c
  3178  000DCC  0E01               	movlw	high (_parkA+65532)
  3179  000DCE  200E               	addwfc	(?___wmul+1)^0,w,c
  3180  000DD0  6EDA               	movwf	fsr2h,c
  3181  000DD2  C019  FFDE         	movff	reserve_the_lot@carToReserve,postinc2
  3182  000DD6  C01A  FFDD         	movff	reserve_the_lot@carToReserve+1,postdec2
  3183  000DDA                     
  3184                           ;main.c: 678:                 successful_reservation = 1;
  3185  000DDA  0E00               	movlw	0
  3186  000DDC  6E22               	movwf	(reserve_the_lot@successful_reservation+1)^0,c
  3187  000DDE  0E01               	movlw	1
  3188  000DE0  6E21               	movwf	reserve_the_lot@successful_reservation^0,c
  3189  000DE2                     
  3190                           ;main.c: 680:                 reserveArr[reserveIndex].plateNumber = carToReserve;
  3191  000DE2  C047  F00D         	movff	_reserveIndex,___wmul@multiplier
  3192  000DE6  C048  F00E         	movff	_reserveIndex+1,___wmul@multiplier+1
  3193  000DEA  0E00               	movlw	0
  3194  000DEC  6E10               	movwf	(___wmul@multiplicand+1)^0,c
  3195  000DEE  0E07               	movlw	7
  3196  000DF0  6E0F               	movwf	___wmul@multiplicand^0,c
  3197  000DF2  ECA8  F014         	call	___wmul	;wreg free
  3198  000DF6  0E80               	movlw	low _reserveArr
  3199  000DF8  240D               	addwf	?___wmul^0,w,c
  3200  000DFA  6ED9               	movwf	fsr2l,c
  3201  000DFC  0E07               	movlw	high _reserveArr
  3202  000DFE  200E               	addwfc	(?___wmul+1)^0,w,c
  3203  000E00  6EDA               	movwf	fsr2h,c
  3204  000E02  C019  FFDE         	movff	reserve_the_lot@carToReserve,postinc2
  3205  000E06  C01A  FFDD         	movff	reserve_the_lot@carToReserve+1,postdec2
  3206  000E0A                     
  3207                           ;main.c: 681:                 reserveArr[reserveIndex].slotNumber = slotNumber-1;
  3208  000E0A  0EFF               	movlw	255
  3209  000E0C  6E1D               	movwf	??_reserve_the_lot^0,c
  3210  000E0E  0EFF               	movlw	255
  3211  000E10  6E1E               	movwf	(??_reserve_the_lot+1)^0,c
  3212  000E12  C01B  F01F         	movff	reserve_the_lot@slotNumber,??_reserve_the_lot+2
  3213  000E16  C01C  F020         	movff	reserve_the_lot@slotNumber+1,??_reserve_the_lot+3
  3214  000E1A  501D               	movf	??_reserve_the_lot^0,w,c
  3215  000E1C  261F               	addwf	(??_reserve_the_lot+2)^0,f,c
  3216  000E1E  501E               	movf	(??_reserve_the_lot+1)^0,w,c
  3217  000E20  2220               	addwfc	(??_reserve_the_lot+3)^0,f,c
  3218  000E22  C047  F00D         	movff	_reserveIndex,___wmul@multiplier
  3219  000E26  C048  F00E         	movff	_reserveIndex+1,___wmul@multiplier+1
  3220  000E2A  0E00               	movlw	0
  3221  000E2C  6E10               	movwf	(___wmul@multiplicand+1)^0,c
  3222  000E2E  0E07               	movlw	7
  3223  000E30  6E0F               	movwf	___wmul@multiplicand^0,c
  3224  000E32  ECA8  F014         	call	___wmul	;wreg free
  3225  000E36  0E82               	movlw	low (_reserveArr+2)
  3226  000E38  240D               	addwf	?___wmul^0,w,c
  3227  000E3A  6ED9               	movwf	fsr2l,c
  3228  000E3C  0E07               	movlw	high (_reserveArr+2)
  3229  000E3E  200E               	addwfc	(?___wmul+1)^0,w,c
  3230  000E40  6EDA               	movwf	fsr2h,c
  3231  000E42  C01F  FFDE         	movff	??_reserve_the_lot+2,postinc2
  3232  000E46  C020  FFDD         	movff	??_reserve_the_lot+3,postdec2
  3233  000E4A                     
  3234                           ;main.c: 682:                 reserveArr[reserveIndex].reservedLevel = 'A';
  3235  000E4A  C047  F00D         	movff	_reserveIndex,___wmul@multiplier
  3236  000E4E  C048  F00E         	movff	_reserveIndex+1,___wmul@multiplier+1
  3237  000E52  0E00               	movlw	0
  3238  000E54  6E10               	movwf	(___wmul@multiplicand+1)^0,c
  3239  000E56  0E07               	movlw	7
  3240  000E58  6E0F               	movwf	___wmul@multiplicand^0,c
  3241  000E5A  ECA8  F014         	call	___wmul	;wreg free
  3242  000E5E  0E84               	movlw	low (_reserveArr+4)
  3243  000E60  240D               	addwf	?___wmul^0,w,c
  3244  000E62  6ED9               	movwf	fsr2l,c
  3245  000E64  0E07               	movlw	high (_reserveArr+4)
  3246  000E66  200E               	addwfc	(?___wmul+1)^0,w,c
  3247  000E68  6EDA               	movwf	fsr2h,c
  3248  000E6A  0E41               	movlw	65
  3249  000E6C  6EDF               	movwf	indf2,c
  3250  000E6E                     l3767:
  3251                           
  3252                           ;main.c: 683:                 reserveArr[reserveIndex].filled = 0;
  3253  000E6E  C047  F00D         	movff	_reserveIndex,___wmul@multiplier
  3254  000E72  C048  F00E         	movff	_reserveIndex+1,___wmul@multiplier+1
  3255  000E76  0E00               	movlw	0
  3256  000E78  6E10               	movwf	(___wmul@multiplicand+1)^0,c
  3257  000E7A  0E07               	movlw	7
  3258  000E7C  6E0F               	movwf	___wmul@multiplicand^0,c
  3259  000E7E  ECA8  F014         	call	___wmul	;wreg free
  3260  000E82  0E85               	movlw	low (_reserveArr+5)
  3261  000E84  240D               	addwf	?___wmul^0,w,c
  3262  000E86  6ED9               	movwf	fsr2l,c
  3263  000E88  0E07               	movlw	high (_reserveArr+5)
  3264  000E8A  200E               	addwfc	(?___wmul+1)^0,w,c
  3265  000E8C  6EDA               	movwf	fsr2h,c
  3266  000E8E  0E00               	movlw	0
  3267  000E90  6EDE               	movwf	postinc2,c
  3268  000E92  0E00               	movlw	0
  3269  000E94  6EDD               	movwf	postdec2,c
  3270  000E96                     
  3271                           ;main.c: 684:                 reserveIndex++;
  3272  000E96  4A47               	infsnz	_reserveIndex^0,f,c
  3273  000E98  2A48               	incf	(_reserveIndex+1)^0,f,c
  3274  000E9A  EF28  F009         	goto	l3829
  3275  000E9E                     l3771:
  3276                           
  3277                           ;main.c: 688:             if(parkB[slotNumber-1].plateNumber == -1 && parkB[slotNumber-1
      +                          ].isReserved == -1){
  3278  000E9E  C01B  F00D         	movff	reserve_the_lot@slotNumber,___wmul@multiplier
  3279  000EA2  C01C  F00E         	movff	reserve_the_lot@slotNumber+1,___wmul@multiplier+1
  3280  000EA6  0E00               	movlw	0
  3281  000EA8  6E10               	movwf	(___wmul@multiplicand+1)^0,c
  3282  000EAA  0E06               	movlw	6
  3283  000EAC  6E0F               	movwf	___wmul@multiplicand^0,c
  3284  000EAE  ECA8  F014         	call	___wmul	;wreg free
  3285  000EB2  0E72               	movlw	low (_parkB+65530)
  3286  000EB4  240D               	addwf	?___wmul^0,w,c
  3287  000EB6  6ED9               	movwf	fsr2l,c
  3288  000EB8  0E01               	movlw	high (_parkB+65530)
  3289  000EBA  200E               	addwfc	(?___wmul+1)^0,w,c
  3290  000EBC  6EDA               	movwf	fsr2h,c
  3291  000EBE  28DE               	incf	postinc2,w,c
  3292  000EC0  E106               	bnz	u3311
  3293  000EC2  28DE               	incf	postinc2,w,c
  3294  000EC4  A4D8               	btfss	status,2,c
  3295  000EC6  EF67  F007         	goto	u3311
  3296  000ECA  EF69  F007         	goto	u3310
  3297  000ECE                     u3311:
  3298  000ECE  EF28  F009         	goto	l3829
  3299  000ED2                     u3310:
  3300  000ED2  C01B  F00D         	movff	reserve_the_lot@slotNumber,___wmul@multiplier
  3301  000ED6  C01C  F00E         	movff	reserve_the_lot@slotNumber+1,___wmul@multiplier+1
  3302  000EDA  0E00               	movlw	0
  3303  000EDC  6E10               	movwf	(___wmul@multiplicand+1)^0,c
  3304  000EDE  0E06               	movlw	6
  3305  000EE0  6E0F               	movwf	___wmul@multiplicand^0,c
  3306  000EE2  ECA8  F014         	call	___wmul	;wreg free
  3307  000EE6  0E74               	movlw	low (_parkB+65532)
  3308  000EE8  240D               	addwf	?___wmul^0,w,c
  3309  000EEA  6ED9               	movwf	fsr2l,c
  3310  000EEC  0E01               	movlw	high (_parkB+65532)
  3311  000EEE  200E               	addwfc	(?___wmul+1)^0,w,c
  3312  000EF0  6EDA               	movwf	fsr2h,c
  3313  000EF2  28DE               	incf	postinc2,w,c
  3314  000EF4  E106               	bnz	u3321
  3315  000EF6  28DE               	incf	postinc2,w,c
  3316  000EF8  A4D8               	btfss	status,2,c
  3317  000EFA  EF81  F007         	goto	u3321
  3318  000EFE  EF83  F007         	goto	u3320
  3319  000F02                     u3321:
  3320  000F02  EF28  F009         	goto	l3829
  3321  000F06                     u3320:
  3322  000F06                     
  3323                           ;main.c: 689:                 parkB[slotNumber-1].isReserved = carToReserve;
  3324  000F06  C01B  F00D         	movff	reserve_the_lot@slotNumber,___wmul@multiplier
  3325  000F0A  C01C  F00E         	movff	reserve_the_lot@slotNumber+1,___wmul@multiplier+1
  3326  000F0E  0E00               	movlw	0
  3327  000F10  6E10               	movwf	(___wmul@multiplicand+1)^0,c
  3328  000F12  0E06               	movlw	6
  3329  000F14  6E0F               	movwf	___wmul@multiplicand^0,c
  3330  000F16  ECA8  F014         	call	___wmul	;wreg free
  3331  000F1A  0E74               	movlw	low (_parkB+65532)
  3332  000F1C  240D               	addwf	?___wmul^0,w,c
  3333  000F1E  6ED9               	movwf	fsr2l,c
  3334  000F20  0E01               	movlw	high (_parkB+65532)
  3335  000F22  200E               	addwfc	(?___wmul+1)^0,w,c
  3336  000F24  6EDA               	movwf	fsr2h,c
  3337  000F26  C019  FFDE         	movff	reserve_the_lot@carToReserve,postinc2
  3338  000F2A  C01A  FFDD         	movff	reserve_the_lot@carToReserve+1,postdec2
  3339  000F2E                     
  3340                           ;main.c: 690:                 successful_reservation = 1;
  3341  000F2E  0E00               	movlw	0
  3342  000F30  6E22               	movwf	(reserve_the_lot@successful_reservation+1)^0,c
  3343  000F32  0E01               	movlw	1
  3344  000F34  6E21               	movwf	reserve_the_lot@successful_reservation^0,c
  3345  000F36                     
  3346                           ;main.c: 692:                 reserveArr[reserveIndex].plateNumber = carToReserve;
  3347  000F36  C047  F00D         	movff	_reserveIndex,___wmul@multiplier
  3348  000F3A  C048  F00E         	movff	_reserveIndex+1,___wmul@multiplier+1
  3349  000F3E  0E00               	movlw	0
  3350  000F40  6E10               	movwf	(___wmul@multiplicand+1)^0,c
  3351  000F42  0E07               	movlw	7
  3352  000F44  6E0F               	movwf	___wmul@multiplicand^0,c
  3353  000F46  ECA8  F014         	call	___wmul	;wreg free
  3354  000F4A  0E80               	movlw	low _reserveArr
  3355  000F4C  240D               	addwf	?___wmul^0,w,c
  3356  000F4E  6ED9               	movwf	fsr2l,c
  3357  000F50  0E07               	movlw	high _reserveArr
  3358  000F52  200E               	addwfc	(?___wmul+1)^0,w,c
  3359  000F54  6EDA               	movwf	fsr2h,c
  3360  000F56  C019  FFDE         	movff	reserve_the_lot@carToReserve,postinc2
  3361  000F5A  C01A  FFDD         	movff	reserve_the_lot@carToReserve+1,postdec2
  3362  000F5E                     
  3363                           ;main.c: 693:                 reserveArr[reserveIndex].slotNumber = slotNumber-1;
  3364  000F5E  0EFF               	movlw	255
  3365  000F60  6E1D               	movwf	??_reserve_the_lot^0,c
  3366  000F62  0EFF               	movlw	255
  3367  000F64  6E1E               	movwf	(??_reserve_the_lot+1)^0,c
  3368  000F66  C01B  F01F         	movff	reserve_the_lot@slotNumber,??_reserve_the_lot+2
  3369  000F6A  C01C  F020         	movff	reserve_the_lot@slotNumber+1,??_reserve_the_lot+3
  3370  000F6E  501D               	movf	??_reserve_the_lot^0,w,c
  3371  000F70  261F               	addwf	(??_reserve_the_lot+2)^0,f,c
  3372  000F72  501E               	movf	(??_reserve_the_lot+1)^0,w,c
  3373  000F74  2220               	addwfc	(??_reserve_the_lot+3)^0,f,c
  3374  000F76  C047  F00D         	movff	_reserveIndex,___wmul@multiplier
  3375  000F7A  C048  F00E         	movff	_reserveIndex+1,___wmul@multiplier+1
  3376  000F7E  0E00               	movlw	0
  3377  000F80  6E10               	movwf	(___wmul@multiplicand+1)^0,c
  3378  000F82  0E07               	movlw	7
  3379  000F84  6E0F               	movwf	___wmul@multiplicand^0,c
  3380  000F86  ECA8  F014         	call	___wmul	;wreg free
  3381  000F8A  0E82               	movlw	low (_reserveArr+2)
  3382  000F8C  240D               	addwf	?___wmul^0,w,c
  3383  000F8E  6ED9               	movwf	fsr2l,c
  3384  000F90  0E07               	movlw	high (_reserveArr+2)
  3385  000F92  200E               	addwfc	(?___wmul+1)^0,w,c
  3386  000F94  6EDA               	movwf	fsr2h,c
  3387  000F96  C01F  FFDE         	movff	??_reserve_the_lot+2,postinc2
  3388  000F9A  C020  FFDD         	movff	??_reserve_the_lot+3,postdec2
  3389  000F9E                     
  3390                           ;main.c: 694:                 reserveArr[reserveIndex].reservedLevel = 'B';
  3391  000F9E  C047  F00D         	movff	_reserveIndex,___wmul@multiplier
  3392  000FA2  C048  F00E         	movff	_reserveIndex+1,___wmul@multiplier+1
  3393  000FA6  0E00               	movlw	0
  3394  000FA8  6E10               	movwf	(___wmul@multiplicand+1)^0,c
  3395  000FAA  0E07               	movlw	7
  3396  000FAC  6E0F               	movwf	___wmul@multiplicand^0,c
  3397  000FAE  ECA8  F014         	call	___wmul	;wreg free
  3398  000FB2  0E84               	movlw	low (_reserveArr+4)
  3399  000FB4  240D               	addwf	?___wmul^0,w,c
  3400  000FB6  6ED9               	movwf	fsr2l,c
  3401  000FB8  0E07               	movlw	high (_reserveArr+4)
  3402  000FBA  200E               	addwfc	(?___wmul+1)^0,w,c
  3403  000FBC  6EDA               	movwf	fsr2h,c
  3404  000FBE  0E42               	movlw	66
  3405  000FC0  6EDF               	movwf	indf2,c
  3406  000FC2  EF37  F007         	goto	l3767
  3407  000FC6                     l3789:
  3408                           
  3409                           ;main.c: 700:             if(parkC[slotNumber-1].plateNumber == -1 && parkC[slotNumber-1
      +                          ].isReserved == -1){
  3410  000FC6  C01B  F00D         	movff	reserve_the_lot@slotNumber,___wmul@multiplier
  3411  000FCA  C01C  F00E         	movff	reserve_the_lot@slotNumber+1,___wmul@multiplier+1
  3412  000FCE  0E00               	movlw	0
  3413  000FD0  6E10               	movwf	(___wmul@multiplicand+1)^0,c
  3414  000FD2  0E06               	movlw	6
  3415  000FD4  6E0F               	movwf	___wmul@multiplicand^0,c
  3416  000FD6  ECA8  F014         	call	___wmul	;wreg free
  3417  000FDA  0E36               	movlw	low (_parkC+65530)
  3418  000FDC  240D               	addwf	?___wmul^0,w,c
  3419  000FDE  6ED9               	movwf	fsr2l,c
  3420  000FE0  0E01               	movlw	high (_parkC+65530)
  3421  000FE2  200E               	addwfc	(?___wmul+1)^0,w,c
  3422  000FE4  6EDA               	movwf	fsr2h,c
  3423  000FE6  28DE               	incf	postinc2,w,c
  3424  000FE8  E106               	bnz	u3331
  3425  000FEA  28DE               	incf	postinc2,w,c
  3426  000FEC  A4D8               	btfss	status,2,c
  3427  000FEE  EFFB  F007         	goto	u3331
  3428  000FF2  EFFD  F007         	goto	u3330
  3429  000FF6                     u3331:
  3430  000FF6  EF28  F009         	goto	l3829
  3431  000FFA                     u3330:
  3432  000FFA  C01B  F00D         	movff	reserve_the_lot@slotNumber,___wmul@multiplier
  3433  000FFE  C01C  F00E         	movff	reserve_the_lot@slotNumber+1,___wmul@multiplier+1
  3434  001002  0E00               	movlw	0
  3435  001004  6E10               	movwf	(___wmul@multiplicand+1)^0,c
  3436  001006  0E06               	movlw	6
  3437  001008  6E0F               	movwf	___wmul@multiplicand^0,c
  3438  00100A  ECA8  F014         	call	___wmul	;wreg free
  3439  00100E  0E38               	movlw	low (_parkC+65532)
  3440  001010  240D               	addwf	?___wmul^0,w,c
  3441  001012  6ED9               	movwf	fsr2l,c
  3442  001014  0E01               	movlw	high (_parkC+65532)
  3443  001016  200E               	addwfc	(?___wmul+1)^0,w,c
  3444  001018  6EDA               	movwf	fsr2h,c
  3445  00101A  28DE               	incf	postinc2,w,c
  3446  00101C  E106               	bnz	u3341
  3447  00101E  28DE               	incf	postinc2,w,c
  3448  001020  A4D8               	btfss	status,2,c
  3449  001022  EF15  F008         	goto	u3341
  3450  001026  EF17  F008         	goto	u3340
  3451  00102A                     u3341:
  3452  00102A  EF28  F009         	goto	l3829
  3453  00102E                     u3340:
  3454  00102E                     
  3455                           ;main.c: 701:                 parkC[slotNumber-1].isReserved = carToReserve;
  3456  00102E  C01B  F00D         	movff	reserve_the_lot@slotNumber,___wmul@multiplier
  3457  001032  C01C  F00E         	movff	reserve_the_lot@slotNumber+1,___wmul@multiplier+1
  3458  001036  0E00               	movlw	0
  3459  001038  6E10               	movwf	(___wmul@multiplicand+1)^0,c
  3460  00103A  0E06               	movlw	6
  3461  00103C  6E0F               	movwf	___wmul@multiplicand^0,c
  3462  00103E  ECA8  F014         	call	___wmul	;wreg free
  3463  001042  0E38               	movlw	low (_parkC+65532)
  3464  001044  240D               	addwf	?___wmul^0,w,c
  3465  001046  6ED9               	movwf	fsr2l,c
  3466  001048  0E01               	movlw	high (_parkC+65532)
  3467  00104A  200E               	addwfc	(?___wmul+1)^0,w,c
  3468  00104C  6EDA               	movwf	fsr2h,c
  3469  00104E  C019  FFDE         	movff	reserve_the_lot@carToReserve,postinc2
  3470  001052  C01A  FFDD         	movff	reserve_the_lot@carToReserve+1,postdec2
  3471  001056                     
  3472                           ;main.c: 702:                 successful_reservation = 1;
  3473  001056  0E00               	movlw	0
  3474  001058  6E22               	movwf	(reserve_the_lot@successful_reservation+1)^0,c
  3475  00105A  0E01               	movlw	1
  3476  00105C  6E21               	movwf	reserve_the_lot@successful_reservation^0,c
  3477  00105E                     
  3478                           ;main.c: 704:                 reserveArr[reserveIndex].plateNumber = carToReserve;
  3479  00105E  C047  F00D         	movff	_reserveIndex,___wmul@multiplier
  3480  001062  C048  F00E         	movff	_reserveIndex+1,___wmul@multiplier+1
  3481  001066  0E00               	movlw	0
  3482  001068  6E10               	movwf	(___wmul@multiplicand+1)^0,c
  3483  00106A  0E07               	movlw	7
  3484  00106C  6E0F               	movwf	___wmul@multiplicand^0,c
  3485  00106E  ECA8  F014         	call	___wmul	;wreg free
  3486  001072  0E80               	movlw	low _reserveArr
  3487  001074  240D               	addwf	?___wmul^0,w,c
  3488  001076  6ED9               	movwf	fsr2l,c
  3489  001078  0E07               	movlw	high _reserveArr
  3490  00107A  200E               	addwfc	(?___wmul+1)^0,w,c
  3491  00107C  6EDA               	movwf	fsr2h,c
  3492  00107E  C019  FFDE         	movff	reserve_the_lot@carToReserve,postinc2
  3493  001082  C01A  FFDD         	movff	reserve_the_lot@carToReserve+1,postdec2
  3494  001086                     
  3495                           ;main.c: 705:                 reserveArr[reserveIndex].slotNumber = slotNumber-1;
  3496  001086  0EFF               	movlw	255
  3497  001088  6E1D               	movwf	??_reserve_the_lot^0,c
  3498  00108A  0EFF               	movlw	255
  3499  00108C  6E1E               	movwf	(??_reserve_the_lot+1)^0,c
  3500  00108E  C01B  F01F         	movff	reserve_the_lot@slotNumber,??_reserve_the_lot+2
  3501  001092  C01C  F020         	movff	reserve_the_lot@slotNumber+1,??_reserve_the_lot+3
  3502  001096  501D               	movf	??_reserve_the_lot^0,w,c
  3503  001098  261F               	addwf	(??_reserve_the_lot+2)^0,f,c
  3504  00109A  501E               	movf	(??_reserve_the_lot+1)^0,w,c
  3505  00109C  2220               	addwfc	(??_reserve_the_lot+3)^0,f,c
  3506  00109E  C047  F00D         	movff	_reserveIndex,___wmul@multiplier
  3507  0010A2  C048  F00E         	movff	_reserveIndex+1,___wmul@multiplier+1
  3508  0010A6  0E00               	movlw	0
  3509  0010A8  6E10               	movwf	(___wmul@multiplicand+1)^0,c
  3510  0010AA  0E07               	movlw	7
  3511  0010AC  6E0F               	movwf	___wmul@multiplicand^0,c
  3512  0010AE  ECA8  F014         	call	___wmul	;wreg free
  3513  0010B2  0E82               	movlw	low (_reserveArr+2)
  3514  0010B4  240D               	addwf	?___wmul^0,w,c
  3515  0010B6  6ED9               	movwf	fsr2l,c
  3516  0010B8  0E07               	movlw	high (_reserveArr+2)
  3517  0010BA  200E               	addwfc	(?___wmul+1)^0,w,c
  3518  0010BC  6EDA               	movwf	fsr2h,c
  3519  0010BE  C01F  FFDE         	movff	??_reserve_the_lot+2,postinc2
  3520  0010C2  C020  FFDD         	movff	??_reserve_the_lot+3,postdec2
  3521  0010C6                     
  3522                           ;main.c: 706:                 reserveArr[reserveIndex].reservedLevel = 'C';
  3523  0010C6  C047  F00D         	movff	_reserveIndex,___wmul@multiplier
  3524  0010CA  C048  F00E         	movff	_reserveIndex+1,___wmul@multiplier+1
  3525  0010CE  0E00               	movlw	0
  3526  0010D0  6E10               	movwf	(___wmul@multiplicand+1)^0,c
  3527  0010D2  0E07               	movlw	7
  3528  0010D4  6E0F               	movwf	___wmul@multiplicand^0,c
  3529  0010D6  ECA8  F014         	call	___wmul	;wreg free
  3530  0010DA  0E84               	movlw	low (_reserveArr+4)
  3531  0010DC  240D               	addwf	?___wmul^0,w,c
  3532  0010DE  6ED9               	movwf	fsr2l,c
  3533  0010E0  0E07               	movlw	high (_reserveArr+4)
  3534  0010E2  200E               	addwfc	(?___wmul+1)^0,w,c
  3535  0010E4  6EDA               	movwf	fsr2h,c
  3536  0010E6  0E43               	movlw	67
  3537  0010E8  6EDF               	movwf	indf2,c
  3538  0010EA  EF37  F007         	goto	l3767
  3539  0010EE                     l3807:
  3540                           
  3541                           ;main.c: 712:             if(parkD[slotNumber-1].plateNumber == -1 && parkD[slotNumber-1
      +                          ].isReserved == -1){
  3542  0010EE  C01B  F00D         	movff	reserve_the_lot@slotNumber,___wmul@multiplier
  3543  0010F2  C01C  F00E         	movff	reserve_the_lot@slotNumber+1,___wmul@multiplier+1
  3544  0010F6  0E00               	movlw	0
  3545  0010F8  6E10               	movwf	(___wmul@multiplicand+1)^0,c
  3546  0010FA  0E06               	movlw	6
  3547  0010FC  6E0F               	movwf	___wmul@multiplicand^0,c
  3548  0010FE  ECA8  F014         	call	___wmul	;wreg free
  3549  001102  0EFA               	movlw	low (_parkD+65530)
  3550  001104  240D               	addwf	?___wmul^0,w,c
  3551  001106  6ED9               	movwf	fsr2l,c
  3552  001108  0E00               	movlw	high (_parkD+65530)
  3553  00110A  200E               	addwfc	(?___wmul+1)^0,w,c
  3554  00110C  6EDA               	movwf	fsr2h,c
  3555  00110E  28DE               	incf	postinc2,w,c
  3556  001110  E106               	bnz	u3351
  3557  001112  28DE               	incf	postinc2,w,c
  3558  001114  A4D8               	btfss	status,2,c
  3559  001116  EF8F  F008         	goto	u3351
  3560  00111A  EF91  F008         	goto	u3350
  3561  00111E                     u3351:
  3562  00111E  EF28  F009         	goto	l3829
  3563  001122                     u3350:
  3564  001122  C01B  F00D         	movff	reserve_the_lot@slotNumber,___wmul@multiplier
  3565  001126  C01C  F00E         	movff	reserve_the_lot@slotNumber+1,___wmul@multiplier+1
  3566  00112A  0E00               	movlw	0
  3567  00112C  6E10               	movwf	(___wmul@multiplicand+1)^0,c
  3568  00112E  0E06               	movlw	6
  3569  001130  6E0F               	movwf	___wmul@multiplicand^0,c
  3570  001132  ECA8  F014         	call	___wmul	;wreg free
  3571  001136  0EFC               	movlw	low (_parkD+65532)
  3572  001138  240D               	addwf	?___wmul^0,w,c
  3573  00113A  6ED9               	movwf	fsr2l,c
  3574  00113C  0E00               	movlw	high (_parkD+65532)
  3575  00113E  200E               	addwfc	(?___wmul+1)^0,w,c
  3576  001140  6EDA               	movwf	fsr2h,c
  3577  001142  28DE               	incf	postinc2,w,c
  3578  001144  E106               	bnz	u3361
  3579  001146  28DE               	incf	postinc2,w,c
  3580  001148  A4D8               	btfss	status,2,c
  3581  00114A  EFA9  F008         	goto	u3361
  3582  00114E  EFAB  F008         	goto	u3360
  3583  001152                     u3361:
  3584  001152  EF28  F009         	goto	l3829
  3585  001156                     u3360:
  3586  001156                     
  3587                           ;main.c: 713:                 parkD[slotNumber-1].isReserved = carToReserve;
  3588  001156  C01B  F00D         	movff	reserve_the_lot@slotNumber,___wmul@multiplier
  3589  00115A  C01C  F00E         	movff	reserve_the_lot@slotNumber+1,___wmul@multiplier+1
  3590  00115E  0E00               	movlw	0
  3591  001160  6E10               	movwf	(___wmul@multiplicand+1)^0,c
  3592  001162  0E06               	movlw	6
  3593  001164  6E0F               	movwf	___wmul@multiplicand^0,c
  3594  001166  ECA8  F014         	call	___wmul	;wreg free
  3595  00116A  0EFC               	movlw	low (_parkD+65532)
  3596  00116C  240D               	addwf	?___wmul^0,w,c
  3597  00116E  6ED9               	movwf	fsr2l,c
  3598  001170  0E00               	movlw	high (_parkD+65532)
  3599  001172  200E               	addwfc	(?___wmul+1)^0,w,c
  3600  001174  6EDA               	movwf	fsr2h,c
  3601  001176  C019  FFDE         	movff	reserve_the_lot@carToReserve,postinc2
  3602  00117A  C01A  FFDD         	movff	reserve_the_lot@carToReserve+1,postdec2
  3603  00117E                     
  3604                           ;main.c: 714:                 successful_reservation = 1;
  3605  00117E  0E00               	movlw	0
  3606  001180  6E22               	movwf	(reserve_the_lot@successful_reservation+1)^0,c
  3607  001182  0E01               	movlw	1
  3608  001184  6E21               	movwf	reserve_the_lot@successful_reservation^0,c
  3609  001186                     
  3610                           ;main.c: 716:                 reserveArr[reserveIndex].plateNumber = carToReserve;
  3611  001186  C047  F00D         	movff	_reserveIndex,___wmul@multiplier
  3612  00118A  C048  F00E         	movff	_reserveIndex+1,___wmul@multiplier+1
  3613  00118E  0E00               	movlw	0
  3614  001190  6E10               	movwf	(___wmul@multiplicand+1)^0,c
  3615  001192  0E07               	movlw	7
  3616  001194  6E0F               	movwf	___wmul@multiplicand^0,c
  3617  001196  ECA8  F014         	call	___wmul	;wreg free
  3618  00119A  0E80               	movlw	low _reserveArr
  3619  00119C  240D               	addwf	?___wmul^0,w,c
  3620  00119E  6ED9               	movwf	fsr2l,c
  3621  0011A0  0E07               	movlw	high _reserveArr
  3622  0011A2  200E               	addwfc	(?___wmul+1)^0,w,c
  3623  0011A4  6EDA               	movwf	fsr2h,c
  3624  0011A6  C019  FFDE         	movff	reserve_the_lot@carToReserve,postinc2
  3625  0011AA  C01A  FFDD         	movff	reserve_the_lot@carToReserve+1,postdec2
  3626  0011AE                     
  3627                           ;main.c: 717:                 reserveArr[reserveIndex].slotNumber = slotNumber-1;
  3628  0011AE  0EFF               	movlw	255
  3629  0011B0  6E1D               	movwf	??_reserve_the_lot^0,c
  3630  0011B2  0EFF               	movlw	255
  3631  0011B4  6E1E               	movwf	(??_reserve_the_lot+1)^0,c
  3632  0011B6  C01B  F01F         	movff	reserve_the_lot@slotNumber,??_reserve_the_lot+2
  3633  0011BA  C01C  F020         	movff	reserve_the_lot@slotNumber+1,??_reserve_the_lot+3
  3634  0011BE  501D               	movf	??_reserve_the_lot^0,w,c
  3635  0011C0  261F               	addwf	(??_reserve_the_lot+2)^0,f,c
  3636  0011C2  501E               	movf	(??_reserve_the_lot+1)^0,w,c
  3637  0011C4  2220               	addwfc	(??_reserve_the_lot+3)^0,f,c
  3638  0011C6  C047  F00D         	movff	_reserveIndex,___wmul@multiplier
  3639  0011CA  C048  F00E         	movff	_reserveIndex+1,___wmul@multiplier+1
  3640  0011CE  0E00               	movlw	0
  3641  0011D0  6E10               	movwf	(___wmul@multiplicand+1)^0,c
  3642  0011D2  0E07               	movlw	7
  3643  0011D4  6E0F               	movwf	___wmul@multiplicand^0,c
  3644  0011D6  ECA8  F014         	call	___wmul	;wreg free
  3645  0011DA  0E82               	movlw	low (_reserveArr+2)
  3646  0011DC  240D               	addwf	?___wmul^0,w,c
  3647  0011DE  6ED9               	movwf	fsr2l,c
  3648  0011E0  0E07               	movlw	high (_reserveArr+2)
  3649  0011E2  200E               	addwfc	(?___wmul+1)^0,w,c
  3650  0011E4  6EDA               	movwf	fsr2h,c
  3651  0011E6  C01F  FFDE         	movff	??_reserve_the_lot+2,postinc2
  3652  0011EA  C020  FFDD         	movff	??_reserve_the_lot+3,postdec2
  3653  0011EE                     
  3654                           ;main.c: 718:                 reserveArr[reserveIndex].reservedLevel = 'D';
  3655  0011EE  C047  F00D         	movff	_reserveIndex,___wmul@multiplier
  3656  0011F2  C048  F00E         	movff	_reserveIndex+1,___wmul@multiplier+1
  3657  0011F6  0E00               	movlw	0
  3658  0011F8  6E10               	movwf	(___wmul@multiplicand+1)^0,c
  3659  0011FA  0E07               	movlw	7
  3660  0011FC  6E0F               	movwf	___wmul@multiplicand^0,c
  3661  0011FE  ECA8  F014         	call	___wmul	;wreg free
  3662  001202  0E84               	movlw	low (_reserveArr+4)
  3663  001204  240D               	addwf	?___wmul^0,w,c
  3664  001206  6ED9               	movwf	fsr2l,c
  3665  001208  0E07               	movlw	high (_reserveArr+4)
  3666  00120A  200E               	addwfc	(?___wmul+1)^0,w,c
  3667  00120C  6EDA               	movwf	fsr2h,c
  3668  00120E  0E44               	movlw	68
  3669  001210  6EDF               	movwf	indf2,c
  3670  001212  EF37  F007         	goto	l3767
  3671  001216                     l3827:
  3672  001216  5051               	movf	_level^0,w,c
  3673  001218  6E1D               	movwf	??_reserve_the_lot^0,c
  3674  00121A  6A1E               	clrf	(??_reserve_the_lot+1)^0,c
  3675                           
  3676                           ; Switch on 2 bytes has been partitioned into a top level switch of size 1, and 1 sub-sw
      +                          itches
  3677                           ; Switch size 1, requested type "simple"
  3678                           ; Number of cases is 1, Range of values is 0 to 0
  3679                           ; switch strategies available:
  3680                           ; Name         Instructions Cycles
  3681                           ; simple_byte            4     3 (average)
  3682                           ;	Chosen strategy is simple_byte
  3683  00121C  501E               	movf	(??_reserve_the_lot+1)^0,w,c
  3684  00121E  0A00               	xorlw	0	; case 0
  3685  001220  B4D8               	btfsc	status,2,c
  3686  001222  EF15  F009         	goto	l4689
  3687  001226  EF28  F009         	goto	l3829
  3688  00122A                     l4689:
  3689                           
  3690                           ; Switch size 1, requested type "simple"
  3691                           ; Number of cases is 4, Range of values is 65 to 68
  3692                           ; switch strategies available:
  3693                           ; Name         Instructions Cycles
  3694                           ; simple_byte           13     7 (average)
  3695                           ;	Chosen strategy is simple_byte
  3696  00122A  501D               	movf	??_reserve_the_lot^0,w,c
  3697  00122C  0A41               	xorlw	65	; case 65
  3698  00122E  B4D8               	btfsc	status,2,c
  3699  001230  EFA5  F006         	goto	l3753
  3700  001234  0A03               	xorlw	3	; case 66
  3701  001236  B4D8               	btfsc	status,2,c
  3702  001238  EF4F  F007         	goto	l3771
  3703  00123C  0A01               	xorlw	1	; case 67
  3704  00123E  B4D8               	btfsc	status,2,c
  3705  001240  EFE3  F007         	goto	l3789
  3706  001244  0A07               	xorlw	7	; case 68
  3707  001246  B4D8               	btfsc	status,2,c
  3708  001248  EF77  F008         	goto	l3807
  3709  00124C  EF28  F009         	goto	l3829
  3710  001250                     l3829:
  3711                           
  3712                           ;main.c: 726:     out_msg msg;;main.c: 727:     if(successful_reservation){
  3713  001250  5021               	movf	reserve_the_lot@successful_reservation^0,w,c
  3714  001252  1022               	iorwf	(reserve_the_lot@successful_reservation+1)^0,w,c
  3715  001254  B4D8               	btfsc	status,2,c
  3716  001256  EF2F  F009         	goto	u3371
  3717  00125A  EF31  F009         	goto	u3370
  3718  00125E                     u3371:
  3719  00125E  EF40  F009         	goto	l3841
  3720  001262                     u3370:
  3721  001262                     
  3722                           ;main.c: 728:         msg.total_fee = 50;
  3723  001262  0E00               	movlw	0
  3724  001264  6E2A               	movwf	(reserve_the_lot@msg+7)^0,c
  3725  001266  0E32               	movlw	50
  3726  001268  6E29               	movwf	(reserve_the_lot@msg+6)^0,c
  3727  00126A                     
  3728                           ;main.c: 729:         INTCONbits.TMR0IE = 0;
  3729  00126A  9AF2               	bcf	242,5,c	;volatile
  3730  00126C                     
  3731                           ;main.c: 730:         total_money += 50;
  3732  00126C  0E32               	movlw	50
  3733  00126E  0100               	movlb	0	; () banked
  3734  001270  27B6               	addwf	_total_money& (0+255),f,b
  3735  001272  0E00               	movlw	0
  3736  001274  23B7               	addwfc	(_total_money+1)& (0+255),f,b
  3737  001276                     
  3738                           ; BSR set to: 0
  3739                           ;main.c: 731:         INTCONbits.TMR0IE = 1;
  3740  001276  8AF2               	bsf	242,5,c	;volatile
  3741  001278                     
  3742                           ; BSR set to: 0
  3743                           ;main.c: 732:         empty_reserved_slots++;
  3744  001278  4BA0               	infsnz	_empty_reserved_slots& (0+255),f,b
  3745  00127A  2BA1               	incf	(_empty_reserved_slots+1)& (0+255),f,b
  3746                           
  3747                           ;main.c: 733:     }
  3748  00127C  EF44  F009         	goto	l3843
  3749  001280                     l3841:
  3750                           
  3751                           ;main.c: 735:         msg.total_fee = 0;
  3752  001280  0E00               	movlw	0
  3753  001282  6E2A               	movwf	(reserve_the_lot@msg+7)^0,c
  3754  001284  0E00               	movlw	0
  3755  001286  6E29               	movwf	(reserve_the_lot@msg+6)^0,c
  3756  001288                     l3843:
  3757                           
  3758                           ;main.c: 737:     msg.licence_num = carToReserve;
  3759  001288  C019  F023         	movff	reserve_the_lot@carToReserve,reserve_the_lot@msg
  3760  00128C  C01A  F024         	movff	reserve_the_lot@carToReserve+1,reserve_the_lot@msg+1
  3761                           
  3762                           ;main.c: 738:     msg.msg_type = 'R';
  3763  001290  0E52               	movlw	82
  3764  001292  6E28               	movwf	(reserve_the_lot@msg+5)^0,c
  3765  001294                     
  3766                           ;main.c: 739:     push_msg_queue(msg);
  3767  001294  EE20  F023         	lfsr	2,reserve_the_lot@msg
  3768  001298  EE00  F00D         	lfsr	0,push_msg_queue@msg
  3769  00129C  0E07               	movlw	7
  3770  00129E                     u3381:
  3771  00129E  CFDB FFEB          	movff	plusw2,plusw0
  3772  0012A2  06E8               	decf	wreg,f,c
  3773  0012A4  E2FC               	bc	u3381
  3774  0012A6  EC96  F012         	call	_push_msg_queue	;wreg free
  3775  0012AA  0012               	return		;funcret
  3776  0012AC                     __end_of_reserve_the_lot:
  3777                           	callstack 0
  3778                           
  3779 ;; *************** function _park_the_car *****************
  3780 ;; Defined at:
  3781 ;;		line 583 in file "main.c"
  3782 ;; Parameters:    Size  Location     Type
  3783 ;;  carToPark       2   24[COMRAM] int 
  3784 ;; Auto vars:     Size  Location     Type
  3785 ;;  msg             8   30[COMRAM] struct out_msg
  3786 ;;  i               2   54[COMRAM] int 
  3787 ;;  i               2   52[COMRAM] int 
  3788 ;;  i               2   50[COMRAM] int 
  3789 ;;  i               2   48[COMRAM] int 
  3790 ;;  i               2   46[COMRAM] int 
  3791 ;;  msg             8   38[COMRAM] struct out_msg
  3792 ;;  park_lot        3    0        PTR struct ParkingLot
  3793 ;;  flag            2   28[COMRAM] int 
  3794 ;; Return value:  Size  Location     Type
  3795 ;;                  1    wreg      void 
  3796 ;; Registers used:
  3797 ;;		wreg, fsr0l, fsr0h, fsr1l, fsr1h, fsr2l, fsr2h, status,2, status,0, prodl, prodh, cstack
  3798 ;; Tracked objects:
  3799 ;;		On entry : 0/0
  3800 ;;		On exit  : 0/0
  3801 ;;		Unchanged: 0/0
  3802 ;; Data sizes:     COMRAM   BANK0   BANK1   BANK2   BANK3   BANK4   BANK5   BANK6   BANK7   BANK8   BANK9  BANK10  BANK1
      +1  BANK12  BANK13  BANK14  BANK15
  3803 ;;      Params:         2       0       0       0       0       0       0       0       0       0       0       0       
      +0       0       0       0       0
  3804 ;;      Locals:        28       0       0       0       0       0       0       0       0       0       0       0       
      +0       0       0       0       0
  3805 ;;      Temps:          2       0       0       0       0       0       0       0       0       0       0       0       
      +0       0       0       0       0
  3806 ;;      Totals:        32       0       0       0       0       0       0       0       0       0       0       0       
      +0       0       0       0       0
  3807 ;;Total ram usage:       32 bytes
  3808 ;; Hardware stack levels used:    1
  3809 ;; Hardware stack levels required when called:    5
  3810 ;; This function calls:
  3811 ;;		___wmul
  3812 ;;		_level_to_index
  3813 ;;		_push_car_queue
  3814 ;;		_push_msg_queue
  3815 ;; This function is called by:
  3816 ;;		_execute_command
  3817 ;; This function uses a non-reentrant model
  3818 ;;
  3819                           
  3820                           	psect	text13
  3821  000734                     __ptext13:
  3822                           	callstack 0
  3823  000734                     _park_the_car:
  3824                           	callstack 23
  3825  000734                     
  3826                           ;main.c: 584:     ParkingLot* park_lot;;main.c: 585:     int flag = 0;
  3827  000734  0E00               	movlw	0
  3828  000736  6E1E               	movwf	(park_the_car@flag+1)^0,c
  3829  000738  0E00               	movlw	0
  3830  00073A  6E1D               	movwf	park_the_car@flag^0,c
  3831                           
  3832                           ;main.c: 589:     for (int i = 0; i < reserveIndex; ++i) {
  3833  00073C  0E00               	movlw	0
  3834  00073E  6E30               	movwf	(park_the_car@i+1)^0,c
  3835  000740  0E00               	movlw	0
  3836  000742  6E2F               	movwf	park_the_car@i^0,c
  3837  000744  EF3B  F004         	goto	l3639
  3838  000748                     l3619:
  3839                           
  3840                           ;main.c: 590:         if (reserveArr[i].plateNumber == carToPark) {
  3841  000748  C02F  F00D         	movff	park_the_car@i,___wmul@multiplier
  3842  00074C  C030  F00E         	movff	park_the_car@i+1,___wmul@multiplier+1
  3843  000750  0E00               	movlw	0
  3844  000752  6E10               	movwf	(___wmul@multiplicand+1)^0,c
  3845  000754  0E07               	movlw	7
  3846  000756  6E0F               	movwf	___wmul@multiplicand^0,c
  3847  000758  ECA8  F014         	call	___wmul	;wreg free
  3848  00075C  0E80               	movlw	low _reserveArr
  3849  00075E  240D               	addwf	?___wmul^0,w,c
  3850  000760  6ED9               	movwf	fsr2l,c
  3851  000762  0E07               	movlw	high _reserveArr
  3852  000764  200E               	addwfc	(?___wmul+1)^0,w,c
  3853  000766  6EDA               	movwf	fsr2h,c
  3854  000768  5019               	movf	park_the_car@carToPark^0,w,c
  3855  00076A  18DE               	xorwf	postinc2,w,c
  3856  00076C  E107               	bnz	u3091
  3857  00076E  501A               	movf	(park_the_car@carToPark+1)^0,w,c
  3858  000770  18DE               	xorwf	postinc2,w,c
  3859  000772  A4D8               	btfss	status,2,c
  3860  000774  EFBE  F003         	goto	u3091
  3861  000778  EFC0  F003         	goto	u3090
  3862  00077C                     u3091:
  3863  00077C  EF39  F004         	goto	l3637
  3864  000780                     u3090:
  3865  000780                     
  3866                           ;main.c: 591:             reserveArr[i].filled = 1;
  3867  000780  C02F  F00D         	movff	park_the_car@i,___wmul@multiplier
  3868  000784  C030  F00E         	movff	park_the_car@i+1,___wmul@multiplier+1
  3869  000788  0E00               	movlw	0
  3870  00078A  6E10               	movwf	(___wmul@multiplicand+1)^0,c
  3871  00078C  0E07               	movlw	7
  3872  00078E  6E0F               	movwf	___wmul@multiplicand^0,c
  3873  000790  ECA8  F014         	call	___wmul	;wreg free
  3874  000794  0E85               	movlw	low (_reserveArr+5)
  3875  000796  240D               	addwf	?___wmul^0,w,c
  3876  000798  6ED9               	movwf	fsr2l,c
  3877  00079A  0E07               	movlw	high (_reserveArr+5)
  3878  00079C  200E               	addwfc	(?___wmul+1)^0,w,c
  3879  00079E  6EDA               	movwf	fsr2h,c
  3880  0007A0  0E01               	movlw	1
  3881  0007A2  6EDE               	movwf	postinc2,c
  3882  0007A4  0E00               	movlw	0
  3883  0007A6  6EDD               	movwf	postdec2,c
  3884                           
  3885                           ;main.c: 592:             out_msg msg;;main.c: 593:             msg.level = reserveArr[i
      +                          ].reservedLevel;
  3886  0007A8  C02F  F00D         	movff	park_the_car@i,___wmul@multiplier
  3887  0007AC  C030  F00E         	movff	park_the_car@i+1,___wmul@multiplier+1
  3888  0007B0  0E00               	movlw	0
  3889  0007B2  6E10               	movwf	(___wmul@multiplicand+1)^0,c
  3890  0007B4  0E07               	movlw	7
  3891  0007B6  6E0F               	movwf	___wmul@multiplicand^0,c
  3892  0007B8  ECA8  F014         	call	___wmul	;wreg free
  3893  0007BC  0E84               	movlw	low (_reserveArr+4)
  3894  0007BE  240D               	addwf	?___wmul^0,w,c
  3895  0007C0  6ED9               	movwf	fsr2l,c
  3896  0007C2  0E07               	movlw	high (_reserveArr+4)
  3897  0007C4  200E               	addwfc	(?___wmul+1)^0,w,c
  3898  0007C6  6EDA               	movwf	fsr2h,c
  3899  0007C8  50DF               	movf	indf2,w,c
  3900  0007CA  6E21               	movwf	(park_the_car@msg+2)^0,c
  3901  0007CC                     
  3902                           ;main.c: 594:             msg.licence_num = carToPark;
  3903  0007CC  C019  F01F         	movff	park_the_car@carToPark,park_the_car@msg
  3904  0007D0  C01A  F020         	movff	park_the_car@carToPark+1,park_the_car@msg+1
  3905                           
  3906                           ;main.c: 595:             msg.park_spot = reserveArr[i].slotNumber+1;
  3907  0007D4  C02F  F00D         	movff	park_the_car@i,___wmul@multiplier
  3908  0007D8  C030  F00E         	movff	park_the_car@i+1,___wmul@multiplier+1
  3909  0007DC  0E00               	movlw	0
  3910  0007DE  6E10               	movwf	(___wmul@multiplicand+1)^0,c
  3911  0007E0  0E07               	movlw	7
  3912  0007E2  6E0F               	movwf	___wmul@multiplicand^0,c
  3913  0007E4  ECA8  F014         	call	___wmul	;wreg free
  3914  0007E8  0E82               	movlw	low (_reserveArr+2)
  3915  0007EA  240D               	addwf	?___wmul^0,w,c
  3916  0007EC  6ED9               	movwf	fsr2l,c
  3917  0007EE  0E07               	movlw	high (_reserveArr+2)
  3918  0007F0  200E               	addwfc	(?___wmul+1)^0,w,c
  3919  0007F2  6EDA               	movwf	fsr2h,c
  3920  0007F4  CFDE F01B          	movff	postinc2,??_park_the_car
  3921  0007F8  CFDD F01C          	movff	postdec2,??_park_the_car+1
  3922  0007FC  0E01               	movlw	1
  3923  0007FE  241B               	addwf	??_park_the_car^0,w,c
  3924  000800  6E22               	movwf	(park_the_car@msg+3)^0,c
  3925  000802  0E00               	movlw	0
  3926  000804  201C               	addwfc	(??_park_the_car+1)^0,w,c
  3927  000806  6E23               	movwf	(park_the_car@msg+4)^0,c
  3928  000808                     
  3929                           ;main.c: 596:             msg.msg_type = 'S';
  3930  000808  0E53               	movlw	83
  3931  00080A  6E24               	movwf	(park_the_car@msg+5)^0,c
  3932  00080C                     
  3933                           ;main.c: 597:             push_msg_queue(msg);
  3934  00080C  EE20  F01F         	lfsr	2,park_the_car@msg
  3935  000810  EE00  F00D         	lfsr	0,push_msg_queue@msg
  3936  000814  0E07               	movlw	7
  3937  000816                     u3101:
  3938  000816  CFDB FFEB          	movff	plusw2,plusw0
  3939  00081A  06E8               	decf	wreg,f,c
  3940  00081C  E2FC               	bc	u3101
  3941  00081E  EC96  F012         	call	_push_msg_queue	;wreg free
  3942  000822                     
  3943                           ;main.c: 598:             total_empty_slots--;
  3944  000822  064D               	decf	_total_empty_slots^0,f,c
  3945  000824  A0D8               	btfss	status,0,c
  3946  000826  064E               	decf	(_total_empty_slots+1)^0,f,c
  3947  000828                     
  3948                           ;main.c: 599:             empty_reserved_slots--;
  3949  000828  0100               	movlb	0	; () banked
  3950  00082A  07A0               	decf	_empty_reserved_slots& (0+255),f,b
  3951  00082C  A0D8               	btfss	status,0,c
  3952  00082E  07A1               	decf	(_empty_reserved_slots+1)& (0+255),f,b
  3953  000830                     
  3954                           ; BSR set to: 0
  3955                           ;main.c: 600:             empty_spaces[level_to_index(reserveArr[i].reservedLevel)]--;
  3956  000830  C02F  F00D         	movff	park_the_car@i,___wmul@multiplier
  3957  000834  C030  F00E         	movff	park_the_car@i+1,___wmul@multiplier+1
  3958  000838  0E00               	movlw	0
  3959  00083A  6E10               	movwf	(___wmul@multiplicand+1)^0,c
  3960  00083C  0E07               	movlw	7
  3961  00083E  6E0F               	movwf	___wmul@multiplicand^0,c
  3962  000840  ECA8  F014         	call	___wmul	;wreg free
  3963  000844  0E84               	movlw	low (_reserveArr+4)
  3964  000846  240D               	addwf	?___wmul^0,w,c
  3965  000848  6ED9               	movwf	fsr2l,c
  3966  00084A  0E07               	movlw	high (_reserveArr+4)
  3967  00084C  200E               	addwfc	(?___wmul+1)^0,w,c
  3968  00084E  6EDA               	movwf	fsr2h,c
  3969  000850  50DF               	movf	indf2,w,c
  3970  000852  ECD0  F012         	call	_level_to_index
  3971  000856  90D8               	bcf	status,0,c
  3972  000858  360D               	rlcf	?_level_to_index^0,f,c
  3973  00085A  360E               	rlcf	(?_level_to_index+1)^0,f,c
  3974  00085C  0EEA               	movlw	low _empty_spaces
  3975  00085E  240D               	addwf	?_level_to_index^0,w,c
  3976  000860  6ED9               	movwf	fsr2l,c
  3977  000862  0E00               	movlw	high _empty_spaces
  3978  000864  200E               	addwfc	(?_level_to_index+1)^0,w,c
  3979  000866  6EDA               	movwf	fsr2h,c
  3980  000868  06DE               	decf	postinc2,f,c
  3981  00086A  0E00               	movlw	0
  3982  00086C  5ADD               	subwfb	postdec2,f,c
  3983  00086E  EF9E  F006         	goto	l329
  3984  000872                     l3637:
  3985                           
  3986                           ;main.c: 603:     }
  3987  000872  4A2F               	infsnz	park_the_car@i^0,f,c
  3988  000874  2A30               	incf	(park_the_car@i+1)^0,f,c
  3989  000876                     l3639:
  3990  000876  5047               	movf	_reserveIndex^0,w,c
  3991  000878  5C2F               	subwf	park_the_car@i^0,w,c
  3992  00087A  5030               	movf	(park_the_car@i+1)^0,w,c
  3993  00087C  0A80               	xorlw	128
  3994  00087E  6E1B               	movwf	??_park_the_car^0,c
  3995  000880  5048               	movf	(_reserveIndex+1)^0,w,c
  3996  000882  0A80               	xorlw	128
  3997  000884  581B               	subwfb	??_park_the_car^0,w,c
  3998  000886  A0D8               	btfss	status,0,c
  3999  000888  EF48  F004         	goto	u3111
  4000  00088C  EF4A  F004         	goto	u3110
  4001  000890                     u3111:
  4002  000890  EFA4  F003         	goto	l3619
  4003  000894                     u3110:
  4004  000894                     
  4005                           ;main.c: 607:     if(total_empty_slots - empty_reserved_slots == 0){
  4006  000894  0100               	movlb	0	; () banked
  4007  000896  51A0               	movf	_empty_reserved_slots& (0+255),w,b
  4008  000898  5C4D               	subwf	_total_empty_slots^0,w,c
  4009  00089A  6E1B               	movwf	??_park_the_car^0,c
  4010  00089C  51A1               	movf	(_empty_reserved_slots+1)& (0+255),w,b
  4011  00089E  584E               	subwfb	(_total_empty_slots+1)^0,w,c
  4012  0008A0  6E1C               	movwf	(??_park_the_car+1)^0,c
  4013  0008A2  501B               	movf	??_park_the_car^0,w,c
  4014  0008A4  101C               	iorwf	(??_park_the_car+1)^0,w,c
  4015  0008A6  A4D8               	btfss	status,2,c
  4016  0008A8  EF58  F004         	goto	u3121
  4017  0008AC  EF5A  F004         	goto	u3120
  4018  0008B0                     u3121:
  4019  0008B0  EF62  F004         	goto	l3647
  4020  0008B4                     u3120:
  4021  0008B4                     
  4022                           ; BSR set to: 0
  4023                           ;main.c: 608:         push_car_queue(carToPark);
  4024  0008B4  C019  F00D         	movff	park_the_car@carToPark,push_car_queue@licence_num
  4025  0008B8  C01A  F00E         	movff	park_the_car@carToPark+1,push_car_queue@licence_num+1
  4026  0008BC  ECF1  F013         	call	_push_car_queue	;wreg free
  4027  0008C0  EF9E  F006         	goto	l329
  4028  0008C4                     l3647:
  4029                           
  4030                           ; BSR set to: 0
  4031                           ;main.c: 612:     for(int i = 0; i < 10; i++){
  4032  0008C4  0E00               	movlw	0
  4033  0008C6  6E32               	movwf	(park_the_car@i_846+1)^0,c
  4034  0008C8  0E00               	movlw	0
  4035  0008CA  6E31               	movwf	park_the_car@i_846^0,c
  4036  0008CC                     l3653:
  4037                           
  4038                           ;main.c: 613:         if(parkA[i].plateNumber == -1 && parkA[i].isReserved == -1){
  4039  0008CC  C031  F00D         	movff	park_the_car@i_846,___wmul@multiplier
  4040  0008D0  C032  F00E         	movff	park_the_car@i_846+1,___wmul@multiplier+1
  4041  0008D4  0E00               	movlw	0
  4042  0008D6  6E10               	movwf	(___wmul@multiplicand+1)^0,c
  4043  0008D8  0E06               	movlw	6
  4044  0008DA  6E0F               	movwf	___wmul@multiplicand^0,c
  4045  0008DC  ECA8  F014         	call	___wmul	;wreg free
  4046  0008E0  0EB4               	movlw	low _parkA
  4047  0008E2  240D               	addwf	?___wmul^0,w,c
  4048  0008E4  6ED9               	movwf	fsr2l,c
  4049  0008E6  0E01               	movlw	high _parkA
  4050  0008E8  200E               	addwfc	(?___wmul+1)^0,w,c
  4051  0008EA  6EDA               	movwf	fsr2h,c
  4052  0008EC  28DE               	incf	postinc2,w,c
  4053  0008EE  E106               	bnz	u3131
  4054  0008F0  28DE               	incf	postinc2,w,c
  4055  0008F2  A4D8               	btfss	status,2,c
  4056  0008F4  EF7E  F004         	goto	u3131
  4057  0008F8  EF80  F004         	goto	u3130
  4058  0008FC                     u3131:
  4059  0008FC  EFD1  F004         	goto	l3665
  4060  000900                     u3130:
  4061  000900  C031  F00D         	movff	park_the_car@i_846,___wmul@multiplier
  4062  000904  C032  F00E         	movff	park_the_car@i_846+1,___wmul@multiplier+1
  4063  000908  0E00               	movlw	0
  4064  00090A  6E10               	movwf	(___wmul@multiplicand+1)^0,c
  4065  00090C  0E06               	movlw	6
  4066  00090E  6E0F               	movwf	___wmul@multiplicand^0,c
  4067  000910  ECA8  F014         	call	___wmul	;wreg free
  4068  000914  0EB6               	movlw	low (_parkA+2)
  4069  000916  240D               	addwf	?___wmul^0,w,c
  4070  000918  6ED9               	movwf	fsr2l,c
  4071  00091A  0E01               	movlw	high (_parkA+2)
  4072  00091C  200E               	addwfc	(?___wmul+1)^0,w,c
  4073  00091E  6EDA               	movwf	fsr2h,c
  4074  000920  28DE               	incf	postinc2,w,c
  4075  000922  E106               	bnz	u3141
  4076  000924  28DE               	incf	postinc2,w,c
  4077  000926  A4D8               	btfss	status,2,c
  4078  000928  EF98  F004         	goto	u3141
  4079  00092C  EF9A  F004         	goto	u3140
  4080  000930                     u3141:
  4081  000930  EFD1  F004         	goto	l3665
  4082  000934                     u3140:
  4083  000934                     
  4084                           ;main.c: 614:             parkA[i].plateNumber = carToPark;
  4085  000934  C031  F00D         	movff	park_the_car@i_846,___wmul@multiplier
  4086  000938  C032  F00E         	movff	park_the_car@i_846+1,___wmul@multiplier+1
  4087  00093C  0E00               	movlw	0
  4088  00093E  6E10               	movwf	(___wmul@multiplicand+1)^0,c
  4089  000940  0E06               	movlw	6
  4090  000942  6E0F               	movwf	___wmul@multiplicand^0,c
  4091  000944  ECA8  F014         	call	___wmul	;wreg free
  4092  000948  0EB4               	movlw	low _parkA
  4093  00094A  240D               	addwf	?___wmul^0,w,c
  4094  00094C  6ED9               	movwf	fsr2l,c
  4095  00094E  0E01               	movlw	high _parkA
  4096  000950  200E               	addwfc	(?___wmul+1)^0,w,c
  4097  000952  6EDA               	movwf	fsr2h,c
  4098  000954  C019  FFDE         	movff	park_the_car@carToPark,postinc2
  4099  000958  C01A  FFDD         	movff	park_the_car@carToPark+1,postdec2
  4100                           
  4101                           ;main.c: 615:             parkA[i].entranceTime = general_counter;
  4102  00095C  C031  F00D         	movff	park_the_car@i_846,___wmul@multiplier
  4103  000960  C032  F00E         	movff	park_the_car@i_846+1,___wmul@multiplier+1
  4104  000964  0E00               	movlw	0
  4105  000966  6E10               	movwf	(___wmul@multiplicand+1)^0,c
  4106  000968  0E06               	movlw	6
  4107  00096A  6E0F               	movwf	___wmul@multiplicand^0,c
  4108  00096C  ECA8  F014         	call	___wmul	;wreg free
  4109  000970  0EB8               	movlw	low (_parkA+4)
  4110  000972  240D               	addwf	?___wmul^0,w,c
  4111  000974  6ED9               	movwf	fsr2l,c
  4112  000976  0E01               	movlw	high (_parkA+4)
  4113  000978  200E               	addwfc	(?___wmul+1)^0,w,c
  4114  00097A  6EDA               	movwf	fsr2h,c
  4115  00097C  C049  FFDE         	movff	_general_counter,postinc2
  4116  000980  C04A  FFDD         	movff	_general_counter+1,postdec2
  4117  000984                     
  4118                           ;main.c: 616:             slot_number = i+1;
  4119  000984  0E01               	movlw	1
  4120  000986  2431               	addwf	park_the_car@i_846^0,w,c
  4121  000988  0100               	movlb	0	; () banked
  4122  00098A  6FA2               	movwf	_slot_number& (0+255),b
  4123  00098C  0E00               	movlw	0
  4124  00098E  2032               	addwfc	(park_the_car@i_846+1)^0,w,c
  4125  000990  6FA3               	movwf	(_slot_number+1)& (0+255),b
  4126  000992                     
  4127                           ; BSR set to: 0
  4128                           ;main.c: 617:             flag = 1;
  4129  000992  0E00               	movlw	0
  4130  000994  6E1E               	movwf	(park_the_car@flag+1)^0,c
  4131  000996  0E01               	movlw	1
  4132  000998  6E1D               	movwf	park_the_car@flag^0,c
  4133  00099A                     
  4134                           ; BSR set to: 0
  4135                           ;main.c: 618:             level = 'A';
  4136  00099A  0E41               	movlw	65
  4137  00099C  6E51               	movwf	_level^0,c
  4138                           
  4139                           ;main.c: 619:             break;
  4140  00099E  EFE1  F004         	goto	l3669
  4141  0009A2                     l3665:
  4142                           
  4143                           ;main.c: 621:     }
  4144  0009A2  4A31               	infsnz	park_the_car@i_846^0,f,c
  4145  0009A4  2A32               	incf	(park_the_car@i_846+1)^0,f,c
  4146  0009A6  BE32               	btfsc	(park_the_car@i_846+1)^0,7,c
  4147  0009A8  EFDF  F004         	goto	u3151
  4148  0009AC  5032               	movf	(park_the_car@i_846+1)^0,w,c
  4149  0009AE  E109               	bnz	u3150
  4150  0009B0  0E0A               	movlw	10
  4151  0009B2  5C31               	subwf	park_the_car@i_846^0,w,c
  4152  0009B4  A0D8               	btfss	status,0,c
  4153  0009B6  EFDF  F004         	goto	u3151
  4154  0009BA  EFE1  F004         	goto	u3150
  4155  0009BE                     u3151:
  4156  0009BE  EF66  F004         	goto	l3653
  4157  0009C2                     u3150:
  4158  0009C2                     l3669:
  4159                           
  4160                           ;main.c: 622:     if (flag == 0) {
  4161  0009C2  501D               	movf	park_the_car@flag^0,w,c
  4162  0009C4  101E               	iorwf	(park_the_car@flag+1)^0,w,c
  4163  0009C6  A4D8               	btfss	status,2,c
  4164  0009C8  EFE8  F004         	goto	u3161
  4165  0009CC  EFEA  F004         	goto	u3160
  4166  0009D0                     u3161:
  4167  0009D0  EF69  F005         	goto	l3693
  4168  0009D4                     u3160:
  4169  0009D4                     
  4170                           ;main.c: 623:         for (int i = 0; i < 10; i++) {
  4171  0009D4  0E00               	movlw	0
  4172  0009D6  6E34               	movwf	(park_the_car@i_847+1)^0,c
  4173  0009D8  0E00               	movlw	0
  4174  0009DA  6E33               	movwf	park_the_car@i_847^0,c
  4175  0009DC                     l3677:
  4176                           
  4177                           ;main.c: 624:             if(parkB[i].plateNumber == -1 && parkB[i].isReserved == -1){
  4178  0009DC  C033  F00D         	movff	park_the_car@i_847,___wmul@multiplier
  4179  0009E0  C034  F00E         	movff	park_the_car@i_847+1,___wmul@multiplier+1
  4180  0009E4  0E00               	movlw	0
  4181  0009E6  6E10               	movwf	(___wmul@multiplicand+1)^0,c
  4182  0009E8  0E06               	movlw	6
  4183  0009EA  6E0F               	movwf	___wmul@multiplicand^0,c
  4184  0009EC  ECA8  F014         	call	___wmul	;wreg free
  4185  0009F0  0E78               	movlw	low _parkB
  4186  0009F2  240D               	addwf	?___wmul^0,w,c
  4187  0009F4  6ED9               	movwf	fsr2l,c
  4188  0009F6  0E01               	movlw	high _parkB
  4189  0009F8  200E               	addwfc	(?___wmul+1)^0,w,c
  4190  0009FA  6EDA               	movwf	fsr2h,c
  4191  0009FC  28DE               	incf	postinc2,w,c
  4192  0009FE  E106               	bnz	u3171
  4193  000A00  28DE               	incf	postinc2,w,c
  4194  000A02  A4D8               	btfss	status,2,c
  4195  000A04  EF06  F005         	goto	u3171
  4196  000A08  EF08  F005         	goto	u3170
  4197  000A0C                     u3171:
  4198  000A0C  EF59  F005         	goto	l3689
  4199  000A10                     u3170:
  4200  000A10  C033  F00D         	movff	park_the_car@i_847,___wmul@multiplier
  4201  000A14  C034  F00E         	movff	park_the_car@i_847+1,___wmul@multiplier+1
  4202  000A18  0E00               	movlw	0
  4203  000A1A  6E10               	movwf	(___wmul@multiplicand+1)^0,c
  4204  000A1C  0E06               	movlw	6
  4205  000A1E  6E0F               	movwf	___wmul@multiplicand^0,c
  4206  000A20  ECA8  F014         	call	___wmul	;wreg free
  4207  000A24  0E7A               	movlw	low (_parkB+2)
  4208  000A26  240D               	addwf	?___wmul^0,w,c
  4209  000A28  6ED9               	movwf	fsr2l,c
  4210  000A2A  0E01               	movlw	high (_parkB+2)
  4211  000A2C  200E               	addwfc	(?___wmul+1)^0,w,c
  4212  000A2E  6EDA               	movwf	fsr2h,c
  4213  000A30  28DE               	incf	postinc2,w,c
  4214  000A32  E106               	bnz	u3181
  4215  000A34  28DE               	incf	postinc2,w,c
  4216  000A36  A4D8               	btfss	status,2,c
  4217  000A38  EF20  F005         	goto	u3181
  4218  000A3C  EF22  F005         	goto	u3180
  4219  000A40                     u3181:
  4220  000A40  EF59  F005         	goto	l3689
  4221  000A44                     u3180:
  4222  000A44                     
  4223                           ;main.c: 625:                 parkB[i].plateNumber = carToPark;
  4224  000A44  C033  F00D         	movff	park_the_car@i_847,___wmul@multiplier
  4225  000A48  C034  F00E         	movff	park_the_car@i_847+1,___wmul@multiplier+1
  4226  000A4C  0E00               	movlw	0
  4227  000A4E  6E10               	movwf	(___wmul@multiplicand+1)^0,c
  4228  000A50  0E06               	movlw	6
  4229  000A52  6E0F               	movwf	___wmul@multiplicand^0,c
  4230  000A54  ECA8  F014         	call	___wmul	;wreg free
  4231  000A58  0E78               	movlw	low _parkB
  4232  000A5A  240D               	addwf	?___wmul^0,w,c
  4233  000A5C  6ED9               	movwf	fsr2l,c
  4234  000A5E  0E01               	movlw	high _parkB
  4235  000A60  200E               	addwfc	(?___wmul+1)^0,w,c
  4236  000A62  6EDA               	movwf	fsr2h,c
  4237  000A64  C019  FFDE         	movff	park_the_car@carToPark,postinc2
  4238  000A68  C01A  FFDD         	movff	park_the_car@carToPark+1,postdec2
  4239                           
  4240                           ;main.c: 626:                 parkB[i].entranceTime = general_counter;
  4241  000A6C  C033  F00D         	movff	park_the_car@i_847,___wmul@multiplier
  4242  000A70  C034  F00E         	movff	park_the_car@i_847+1,___wmul@multiplier+1
  4243  000A74  0E00               	movlw	0
  4244  000A76  6E10               	movwf	(___wmul@multiplicand+1)^0,c
  4245  000A78  0E06               	movlw	6
  4246  000A7A  6E0F               	movwf	___wmul@multiplicand^0,c
  4247  000A7C  ECA8  F014         	call	___wmul	;wreg free
  4248  000A80  0E7C               	movlw	low (_parkB+4)
  4249  000A82  240D               	addwf	?___wmul^0,w,c
  4250  000A84  6ED9               	movwf	fsr2l,c
  4251  000A86  0E01               	movlw	high (_parkB+4)
  4252  000A88  200E               	addwfc	(?___wmul+1)^0,w,c
  4253  000A8A  6EDA               	movwf	fsr2h,c
  4254  000A8C  C049  FFDE         	movff	_general_counter,postinc2
  4255  000A90  C04A  FFDD         	movff	_general_counter+1,postdec2
  4256  000A94                     
  4257                           ;main.c: 627:                 slot_number = i+1;
  4258  000A94  0E01               	movlw	1
  4259  000A96  2433               	addwf	park_the_car@i_847^0,w,c
  4260  000A98  0100               	movlb	0	; () banked
  4261  000A9A  6FA2               	movwf	_slot_number& (0+255),b
  4262  000A9C  0E00               	movlw	0
  4263  000A9E  2034               	addwfc	(park_the_car@i_847+1)^0,w,c
  4264  000AA0  6FA3               	movwf	(_slot_number+1)& (0+255),b
  4265  000AA2                     
  4266                           ; BSR set to: 0
  4267                           ;main.c: 628:                 flag = 1;
  4268  000AA2  0E00               	movlw	0
  4269  000AA4  6E1E               	movwf	(park_the_car@flag+1)^0,c
  4270  000AA6  0E01               	movlw	1
  4271  000AA8  6E1D               	movwf	park_the_car@flag^0,c
  4272  000AAA                     
  4273                           ; BSR set to: 0
  4274                           ;main.c: 629:                 level = 'B';
  4275  000AAA  0E42               	movlw	66
  4276  000AAC  6E51               	movwf	_level^0,c
  4277                           
  4278                           ;main.c: 630:                 break;
  4279  000AAE  EF69  F005         	goto	l3693
  4280  000AB2                     l3689:
  4281                           
  4282                           ;main.c: 632:         }
  4283  000AB2  4A33               	infsnz	park_the_car@i_847^0,f,c
  4284  000AB4  2A34               	incf	(park_the_car@i_847+1)^0,f,c
  4285  000AB6  BE34               	btfsc	(park_the_car@i_847+1)^0,7,c
  4286  000AB8  EF67  F005         	goto	u3191
  4287  000ABC  5034               	movf	(park_the_car@i_847+1)^0,w,c
  4288  000ABE  E109               	bnz	u3190
  4289  000AC0  0E0A               	movlw	10
  4290  000AC2  5C33               	subwf	park_the_car@i_847^0,w,c
  4291  000AC4  A0D8               	btfss	status,0,c
  4292  000AC6  EF67  F005         	goto	u3191
  4293  000ACA  EF69  F005         	goto	u3190
  4294  000ACE                     u3191:
  4295  000ACE  EFEE  F004         	goto	l3677
  4296  000AD2                     u3190:
  4297  000AD2                     l3693:
  4298                           
  4299                           ;main.c: 634:     if (flag == 0) {
  4300  000AD2  501D               	movf	park_the_car@flag^0,w,c
  4301  000AD4  101E               	iorwf	(park_the_car@flag+1)^0,w,c
  4302  000AD6  A4D8               	btfss	status,2,c
  4303  000AD8  EF70  F005         	goto	u3201
  4304  000ADC  EF72  F005         	goto	u3200
  4305  000AE0                     u3201:
  4306  000AE0  EFF1  F005         	goto	l3717
  4307  000AE4                     u3200:
  4308  000AE4                     
  4309                           ;main.c: 635:         for (int i = 0; i < 10; i++) {
  4310  000AE4  0E00               	movlw	0
  4311  000AE6  6E36               	movwf	(park_the_car@i_848+1)^0,c
  4312  000AE8  0E00               	movlw	0
  4313  000AEA  6E35               	movwf	park_the_car@i_848^0,c
  4314  000AEC                     l3701:
  4315                           
  4316                           ;main.c: 636:             if(parkC[i].plateNumber == -1 && parkC[i].isReserved == -1){
  4317  000AEC  C035  F00D         	movff	park_the_car@i_848,___wmul@multiplier
  4318  000AF0  C036  F00E         	movff	park_the_car@i_848+1,___wmul@multiplier+1
  4319  000AF4  0E00               	movlw	0
  4320  000AF6  6E10               	movwf	(___wmul@multiplicand+1)^0,c
  4321  000AF8  0E06               	movlw	6
  4322  000AFA  6E0F               	movwf	___wmul@multiplicand^0,c
  4323  000AFC  ECA8  F014         	call	___wmul	;wreg free
  4324  000B00  0E3C               	movlw	low _parkC
  4325  000B02  240D               	addwf	?___wmul^0,w,c
  4326  000B04  6ED9               	movwf	fsr2l,c
  4327  000B06  0E01               	movlw	high _parkC
  4328  000B08  200E               	addwfc	(?___wmul+1)^0,w,c
  4329  000B0A  6EDA               	movwf	fsr2h,c
  4330  000B0C  28DE               	incf	postinc2,w,c
  4331  000B0E  E106               	bnz	u3211
  4332  000B10  28DE               	incf	postinc2,w,c
  4333  000B12  A4D8               	btfss	status,2,c
  4334  000B14  EF8E  F005         	goto	u3211
  4335  000B18  EF90  F005         	goto	u3210
  4336  000B1C                     u3211:
  4337  000B1C  EFE1  F005         	goto	l3713
  4338  000B20                     u3210:
  4339  000B20  C035  F00D         	movff	park_the_car@i_848,___wmul@multiplier
  4340  000B24  C036  F00E         	movff	park_the_car@i_848+1,___wmul@multiplier+1
  4341  000B28  0E00               	movlw	0
  4342  000B2A  6E10               	movwf	(___wmul@multiplicand+1)^0,c
  4343  000B2C  0E06               	movlw	6
  4344  000B2E  6E0F               	movwf	___wmul@multiplicand^0,c
  4345  000B30  ECA8  F014         	call	___wmul	;wreg free
  4346  000B34  0E3E               	movlw	low (_parkC+2)
  4347  000B36  240D               	addwf	?___wmul^0,w,c
  4348  000B38  6ED9               	movwf	fsr2l,c
  4349  000B3A  0E01               	movlw	high (_parkC+2)
  4350  000B3C  200E               	addwfc	(?___wmul+1)^0,w,c
  4351  000B3E  6EDA               	movwf	fsr2h,c
  4352  000B40  28DE               	incf	postinc2,w,c
  4353  000B42  E106               	bnz	u3221
  4354  000B44  28DE               	incf	postinc2,w,c
  4355  000B46  A4D8               	btfss	status,2,c
  4356  000B48  EFA8  F005         	goto	u3221
  4357  000B4C  EFAA  F005         	goto	u3220
  4358  000B50                     u3221:
  4359  000B50  EFE1  F005         	goto	l3713
  4360  000B54                     u3220:
  4361  000B54                     
  4362                           ;main.c: 637:                 parkC[i].plateNumber = carToPark;
  4363  000B54  C035  F00D         	movff	park_the_car@i_848,___wmul@multiplier
  4364  000B58  C036  F00E         	movff	park_the_car@i_848+1,___wmul@multiplier+1
  4365  000B5C  0E00               	movlw	0
  4366  000B5E  6E10               	movwf	(___wmul@multiplicand+1)^0,c
  4367  000B60  0E06               	movlw	6
  4368  000B62  6E0F               	movwf	___wmul@multiplicand^0,c
  4369  000B64  ECA8  F014         	call	___wmul	;wreg free
  4370  000B68  0E3C               	movlw	low _parkC
  4371  000B6A  240D               	addwf	?___wmul^0,w,c
  4372  000B6C  6ED9               	movwf	fsr2l,c
  4373  000B6E  0E01               	movlw	high _parkC
  4374  000B70  200E               	addwfc	(?___wmul+1)^0,w,c
  4375  000B72  6EDA               	movwf	fsr2h,c
  4376  000B74  C019  FFDE         	movff	park_the_car@carToPark,postinc2
  4377  000B78  C01A  FFDD         	movff	park_the_car@carToPark+1,postdec2
  4378                           
  4379                           ;main.c: 638:                 parkC[i].entranceTime = general_counter;
  4380  000B7C  C035  F00D         	movff	park_the_car@i_848,___wmul@multiplier
  4381  000B80  C036  F00E         	movff	park_the_car@i_848+1,___wmul@multiplier+1
  4382  000B84  0E00               	movlw	0
  4383  000B86  6E10               	movwf	(___wmul@multiplicand+1)^0,c
  4384  000B88  0E06               	movlw	6
  4385  000B8A  6E0F               	movwf	___wmul@multiplicand^0,c
  4386  000B8C  ECA8  F014         	call	___wmul	;wreg free
  4387  000B90  0E40               	movlw	low (_parkC+4)
  4388  000B92  240D               	addwf	?___wmul^0,w,c
  4389  000B94  6ED9               	movwf	fsr2l,c
  4390  000B96  0E01               	movlw	high (_parkC+4)
  4391  000B98  200E               	addwfc	(?___wmul+1)^0,w,c
  4392  000B9A  6EDA               	movwf	fsr2h,c
  4393  000B9C  C049  FFDE         	movff	_general_counter,postinc2
  4394  000BA0  C04A  FFDD         	movff	_general_counter+1,postdec2
  4395  000BA4                     
  4396                           ;main.c: 639:                 slot_number = i+1;
  4397  000BA4  0E01               	movlw	1
  4398  000BA6  2435               	addwf	park_the_car@i_848^0,w,c
  4399  000BA8  0100               	movlb	0	; () banked
  4400  000BAA  6FA2               	movwf	_slot_number& (0+255),b
  4401  000BAC  0E00               	movlw	0
  4402  000BAE  2036               	addwfc	(park_the_car@i_848+1)^0,w,c
  4403  000BB0  6FA3               	movwf	(_slot_number+1)& (0+255),b
  4404  000BB2                     
  4405                           ; BSR set to: 0
  4406                           ;main.c: 640:                 flag = 1;
  4407  000BB2  0E00               	movlw	0
  4408  000BB4  6E1E               	movwf	(park_the_car@flag+1)^0,c
  4409  000BB6  0E01               	movlw	1
  4410  000BB8  6E1D               	movwf	park_the_car@flag^0,c
  4411  000BBA                     
  4412                           ; BSR set to: 0
  4413                           ;main.c: 641:                 level = 'C';
  4414  000BBA  0E43               	movlw	67
  4415  000BBC  6E51               	movwf	_level^0,c
  4416                           
  4417                           ;main.c: 642:                 break;
  4418  000BBE  EFF1  F005         	goto	l3717
  4419  000BC2                     l3713:
  4420                           
  4421                           ;main.c: 644:         }
  4422  000BC2  4A35               	infsnz	park_the_car@i_848^0,f,c
  4423  000BC4  2A36               	incf	(park_the_car@i_848+1)^0,f,c
  4424  000BC6  BE36               	btfsc	(park_the_car@i_848+1)^0,7,c
  4425  000BC8  EFEF  F005         	goto	u3231
  4426  000BCC  5036               	movf	(park_the_car@i_848+1)^0,w,c
  4427  000BCE  E109               	bnz	u3230
  4428  000BD0  0E0A               	movlw	10
  4429  000BD2  5C35               	subwf	park_the_car@i_848^0,w,c
  4430  000BD4  A0D8               	btfss	status,0,c
  4431  000BD6  EFEF  F005         	goto	u3231
  4432  000BDA  EFF1  F005         	goto	u3230
  4433  000BDE                     u3231:
  4434  000BDE  EF76  F005         	goto	l3701
  4435  000BE2                     u3230:
  4436  000BE2                     l3717:
  4437                           
  4438                           ;main.c: 646:     if (flag == 0) {
  4439  000BE2  501D               	movf	park_the_car@flag^0,w,c
  4440  000BE4  101E               	iorwf	(park_the_car@flag+1)^0,w,c
  4441  000BE6  A4D8               	btfss	status,2,c
  4442  000BE8  EFF8  F005         	goto	u3241
  4443  000BEC  EFFA  F005         	goto	u3240
  4444  000BF0                     u3241:
  4445  000BF0  EF75  F006         	goto	l343
  4446  000BF4                     u3240:
  4447  000BF4                     
  4448                           ;main.c: 647:         for (int i = 0; i < 10; i++) {
  4449  000BF4  0E00               	movlw	0
  4450  000BF6  6E38               	movwf	(park_the_car@i_849+1)^0,c
  4451  000BF8  0E00               	movlw	0
  4452  000BFA  6E37               	movwf	park_the_car@i_849^0,c
  4453  000BFC                     l3725:
  4454                           
  4455                           ;main.c: 648:             if(parkD[i].plateNumber == -1 && parkD[i].isReserved == -1){
  4456  000BFC  C037  F00D         	movff	park_the_car@i_849,___wmul@multiplier
  4457  000C00  C038  F00E         	movff	park_the_car@i_849+1,___wmul@multiplier+1
  4458  000C04  0E00               	movlw	0
  4459  000C06  6E10               	movwf	(___wmul@multiplicand+1)^0,c
  4460  000C08  0E06               	movlw	6
  4461  000C0A  6E0F               	movwf	___wmul@multiplicand^0,c
  4462  000C0C  ECA8  F014         	call	___wmul	;wreg free
  4463  000C10  0E00               	movlw	low _parkD
  4464  000C12  240D               	addwf	?___wmul^0,w,c
  4465  000C14  6ED9               	movwf	fsr2l,c
  4466  000C16  0E01               	movlw	high _parkD
  4467  000C18  200E               	addwfc	(?___wmul+1)^0,w,c
  4468  000C1A  6EDA               	movwf	fsr2h,c
  4469  000C1C  28DE               	incf	postinc2,w,c
  4470  000C1E  E106               	bnz	u3251
  4471  000C20  28DE               	incf	postinc2,w,c
  4472  000C22  A4D8               	btfss	status,2,c
  4473  000C24  EF16  F006         	goto	u3251
  4474  000C28  EF18  F006         	goto	u3250
  4475  000C2C                     u3251:
  4476  000C2C  EF65  F006         	goto	l3737
  4477  000C30                     u3250:
  4478  000C30  C037  F00D         	movff	park_the_car@i_849,___wmul@multiplier
  4479  000C34  C038  F00E         	movff	park_the_car@i_849+1,___wmul@multiplier+1
  4480  000C38  0E00               	movlw	0
  4481  000C3A  6E10               	movwf	(___wmul@multiplicand+1)^0,c
  4482  000C3C  0E06               	movlw	6
  4483  000C3E  6E0F               	movwf	___wmul@multiplicand^0,c
  4484  000C40  ECA8  F014         	call	___wmul	;wreg free
  4485  000C44  0E02               	movlw	low (_parkD+2)
  4486  000C46  240D               	addwf	?___wmul^0,w,c
  4487  000C48  6ED9               	movwf	fsr2l,c
  4488  000C4A  0E01               	movlw	high (_parkD+2)
  4489  000C4C  200E               	addwfc	(?___wmul+1)^0,w,c
  4490  000C4E  6EDA               	movwf	fsr2h,c
  4491  000C50  28DE               	incf	postinc2,w,c
  4492  000C52  E106               	bnz	u3261
  4493  000C54  28DE               	incf	postinc2,w,c
  4494  000C56  A4D8               	btfss	status,2,c
  4495  000C58  EF30  F006         	goto	u3261
  4496  000C5C  EF32  F006         	goto	u3260
  4497  000C60                     u3261:
  4498  000C60  EF65  F006         	goto	l3737
  4499  000C64                     u3260:
  4500  000C64                     
  4501                           ;main.c: 649:                 parkD[i].plateNumber = carToPark;
  4502  000C64  C037  F00D         	movff	park_the_car@i_849,___wmul@multiplier
  4503  000C68  C038  F00E         	movff	park_the_car@i_849+1,___wmul@multiplier+1
  4504  000C6C  0E00               	movlw	0
  4505  000C6E  6E10               	movwf	(___wmul@multiplicand+1)^0,c
  4506  000C70  0E06               	movlw	6
  4507  000C72  6E0F               	movwf	___wmul@multiplicand^0,c
  4508  000C74  ECA8  F014         	call	___wmul	;wreg free
  4509  000C78  0E00               	movlw	low _parkD
  4510  000C7A  240D               	addwf	?___wmul^0,w,c
  4511  000C7C  6ED9               	movwf	fsr2l,c
  4512  000C7E  0E01               	movlw	high _parkD
  4513  000C80  200E               	addwfc	(?___wmul+1)^0,w,c
  4514  000C82  6EDA               	movwf	fsr2h,c
  4515  000C84  C019  FFDE         	movff	park_the_car@carToPark,postinc2
  4516  000C88  C01A  FFDD         	movff	park_the_car@carToPark+1,postdec2
  4517                           
  4518                           ;main.c: 650:                 parkD[i].entranceTime = general_counter;
  4519  000C8C  C037  F00D         	movff	park_the_car@i_849,___wmul@multiplier
  4520  000C90  C038  F00E         	movff	park_the_car@i_849+1,___wmul@multiplier+1
  4521  000C94  0E00               	movlw	0
  4522  000C96  6E10               	movwf	(___wmul@multiplicand+1)^0,c
  4523  000C98  0E06               	movlw	6
  4524  000C9A  6E0F               	movwf	___wmul@multiplicand^0,c
  4525  000C9C  ECA8  F014         	call	___wmul	;wreg free
  4526  000CA0  0E04               	movlw	low (_parkD+4)
  4527  000CA2  240D               	addwf	?___wmul^0,w,c
  4528  000CA4  6ED9               	movwf	fsr2l,c
  4529  000CA6  0E01               	movlw	high (_parkD+4)
  4530  000CA8  200E               	addwfc	(?___wmul+1)^0,w,c
  4531  000CAA  6EDA               	movwf	fsr2h,c
  4532  000CAC  C049  FFDE         	movff	_general_counter,postinc2
  4533  000CB0  C04A  FFDD         	movff	_general_counter+1,postdec2
  4534  000CB4                     
  4535                           ;main.c: 651:                 slot_number = i+1;
  4536  000CB4  0E01               	movlw	1
  4537  000CB6  2437               	addwf	park_the_car@i_849^0,w,c
  4538  000CB8  0100               	movlb	0	; () banked
  4539  000CBA  6FA2               	movwf	_slot_number& (0+255),b
  4540  000CBC  0E00               	movlw	0
  4541  000CBE  2038               	addwfc	(park_the_car@i_849+1)^0,w,c
  4542  000CC0  6FA3               	movwf	(_slot_number+1)& (0+255),b
  4543  000CC2                     
  4544                           ; BSR set to: 0
  4545                           ;main.c: 653:                 level = 'D';
  4546  000CC2  0E44               	movlw	68
  4547  000CC4  6E51               	movwf	_level^0,c
  4548                           
  4549                           ;main.c: 654:                 break;
  4550  000CC6  EF75  F006         	goto	l343
  4551  000CCA                     l3737:
  4552                           
  4553                           ;main.c: 656:         }
  4554  000CCA  4A37               	infsnz	park_the_car@i_849^0,f,c
  4555  000CCC  2A38               	incf	(park_the_car@i_849+1)^0,f,c
  4556  000CCE  BE38               	btfsc	(park_the_car@i_849+1)^0,7,c
  4557  000CD0  EF73  F006         	goto	u3271
  4558  000CD4  5038               	movf	(park_the_car@i_849+1)^0,w,c
  4559  000CD6  E109               	bnz	u3270
  4560  000CD8  0E0A               	movlw	10
  4561  000CDA  5C37               	subwf	park_the_car@i_849^0,w,c
  4562  000CDC  A0D8               	btfss	status,0,c
  4563  000CDE  EF73  F006         	goto	u3271
  4564  000CE2  EF75  F006         	goto	u3270
  4565  000CE6                     u3271:
  4566  000CE6  EFFE  F005         	goto	l3725
  4567  000CEA                     u3270:
  4568  000CEA                     l343:
  4569                           
  4570                           ;main.c: 660:     out_msg msg;;main.c: 661:     msg.level = level;
  4571  000CEA  C051  F029         	movff	_level,park_the_car@msg_850+2
  4572                           
  4573                           ;main.c: 662:     msg.licence_num = carToPark;
  4574  000CEE  C019  F027         	movff	park_the_car@carToPark,park_the_car@msg_850
  4575  000CF2  C01A  F028         	movff	park_the_car@carToPark+1,park_the_car@msg_850+1
  4576                           
  4577                           ;main.c: 663:     msg.park_spot = slot_number;
  4578  000CF6  C0A2  F02A         	movff	_slot_number,park_the_car@msg_850+3
  4579  000CFA  C0A3  F02B         	movff	_slot_number+1,park_the_car@msg_850+4
  4580  000CFE                     
  4581                           ;main.c: 664:     msg.msg_type = 'S';
  4582  000CFE  0E53               	movlw	83
  4583  000D00  6E2C               	movwf	(park_the_car@msg_850+5)^0,c
  4584  000D02                     
  4585                           ;main.c: 665:     push_msg_queue(msg);
  4586  000D02  EE20  F027         	lfsr	2,park_the_car@msg_850
  4587  000D06  EE00  F00D         	lfsr	0,push_msg_queue@msg
  4588  000D0A  0E07               	movlw	7
  4589  000D0C                     u3281:
  4590  000D0C  CFDB FFEB          	movff	plusw2,plusw0
  4591  000D10  06E8               	decf	wreg,f,c
  4592  000D12  E2FC               	bc	u3281
  4593  000D14  EC96  F012         	call	_push_msg_queue	;wreg free
  4594  000D18                     
  4595                           ;main.c: 666:     total_empty_slots--;
  4596  000D18  064D               	decf	_total_empty_slots^0,f,c
  4597  000D1A  A0D8               	btfss	status,0,c
  4598  000D1C  064E               	decf	(_total_empty_slots+1)^0,f,c
  4599  000D1E                     
  4600                           ;main.c: 667:     empty_spaces[level_to_index(level)]--;
  4601  000D1E  5051               	movf	_level^0,w,c
  4602  000D20  ECD0  F012         	call	_level_to_index
  4603  000D24  90D8               	bcf	status,0,c
  4604  000D26  360D               	rlcf	?_level_to_index^0,f,c
  4605  000D28  360E               	rlcf	(?_level_to_index+1)^0,f,c
  4606  000D2A  0EEA               	movlw	low _empty_spaces
  4607  000D2C  240D               	addwf	?_level_to_index^0,w,c
  4608  000D2E  6ED9               	movwf	fsr2l,c
  4609  000D30  0E00               	movlw	high _empty_spaces
  4610  000D32  200E               	addwfc	(?_level_to_index+1)^0,w,c
  4611  000D34  6EDA               	movwf	fsr2h,c
  4612  000D36  06DE               	decf	postinc2,f,c
  4613  000D38  0E00               	movlw	0
  4614  000D3A  5ADD               	subwfb	postdec2,f,c
  4615  000D3C                     l329:
  4616  000D3C  0012               	return		;funcret
  4617  000D3E                     __end_of_park_the_car:
  4618                           	callstack 0
  4619                           
  4620 ;; *************** function _push_car_queue *****************
  4621 ;; Defined at:
  4622 ;;		line 542 in file "main.c"
  4623 ;; Parameters:    Size  Location     Type
  4624 ;;  licence_num     2   12[COMRAM] int 
  4625 ;; Auto vars:     Size  Location     Type
  4626 ;;		None
  4627 ;; Return value:  Size  Location     Type
  4628 ;;                  1    wreg      void 
  4629 ;; Registers used:
  4630 ;;		wreg, fsr2l, fsr2h, status,2, status,0
  4631 ;; Tracked objects:
  4632 ;;		On entry : 0/0
  4633 ;;		On exit  : 0/0
  4634 ;;		Unchanged: 0/0
  4635 ;; Data sizes:     COMRAM   BANK0   BANK1   BANK2   BANK3   BANK4   BANK5   BANK6   BANK7   BANK8   BANK9  BANK10  BANK1
      +1  BANK12  BANK13  BANK14  BANK15
  4636 ;;      Params:         2       0       0       0       0       0       0       0       0       0       0       0       
      +0       0       0       0       0
  4637 ;;      Locals:         0       0       0       0       0       0       0       0       0       0       0       0       
      +0       0       0       0       0
  4638 ;;      Temps:          2       0       0       0       0       0       0       0       0       0       0       0       
      +0       0       0       0       0
  4639 ;;      Totals:         4       0       0       0       0       0       0       0       0       0       0       0       
      +0       0       0       0       0
  4640 ;;Total ram usage:        4 bytes
  4641 ;; Hardware stack levels used:    1
  4642 ;; Hardware stack levels required when called:    4
  4643 ;; This function calls:
  4644 ;;		Nothing
  4645 ;; This function is called by:
  4646 ;;		_park_the_car
  4647 ;; This function uses a non-reentrant model
  4648 ;;
  4649                           
  4650                           	psect	text14
  4651  0027E2                     __ptext14:
  4652                           	callstack 0
  4653  0027E2                     _push_car_queue:
  4654                           	callstack 23
  4655  0027E2                     
  4656                           ;main.c: 543:     if (car_queue_size == 16) {
  4657  0027E2  0E10               	movlw	16
  4658  0027E4  0100               	movlb	0	; () banked
  4659  0027E6  19AA               	xorwf	_car_queue_size& (0+255),w,b
  4660  0027E8  11AB               	iorwf	(_car_queue_size+1)& (0+255),w,b
  4661  0027EA  A4D8               	btfss	status,2,c
  4662  0027EC  EFFA  F013         	goto	u3011
  4663  0027F0  EFFC  F013         	goto	u3010
  4664  0027F4                     u3011:
  4665  0027F4  EFFE  F013         	goto	l3529
  4666  0027F8                     u3010:
  4667  0027F8  EF17  F014         	goto	l309
  4668  0027FC                     l3529:
  4669                           
  4670                           ; BSR set to: 0
  4671                           ;main.c: 546:     wait_queue[tail_car_queue] = licence_num;
  4672  0027FC  90D8               	bcf	status,0,c
  4673  0027FE  35AC               	rlcf	_tail_car_queue& (0+255),w,b
  4674  002800  6ED9               	movwf	fsr2l,c
  4675  002802  35AD               	rlcf	(_tail_car_queue+1)& (0+255),w,b
  4676  002804  6EDA               	movwf	fsr2h,c
  4677  002806  0E80               	movlw	low _wait_queue
  4678  002808  26D9               	addwf	fsr2l,f,c
  4679  00280A  0E02               	movlw	high _wait_queue
  4680  00280C  22DA               	addwfc	fsr2h,f,c
  4681  00280E  C00D  FFDE         	movff	push_car_queue@licence_num,postinc2
  4682  002812  C00E  FFDD         	movff	push_car_queue@licence_num+1,postdec2
  4683  002816                     
  4684                           ; BSR set to: 0
  4685                           ;main.c: 547:     tail_car_queue = (tail_car_queue + 1) % 16;
  4686  002816  0E01               	movlw	1
  4687  002818  25AC               	addwf	_tail_car_queue& (0+255),w,b
  4688  00281A  6E0F               	movwf	??_push_car_queue^0,c
  4689  00281C  0E00               	movlw	0
  4690  00281E  21AD               	addwfc	(_tail_car_queue+1)& (0+255),w,b
  4691  002820  6E10               	movwf	(??_push_car_queue+1)^0,c
  4692  002822  0E0F               	movlw	15
  4693  002824  140F               	andwf	??_push_car_queue^0,w,c
  4694  002826  6FAC               	movwf	_tail_car_queue& (0+255),b
  4695  002828  6BAD               	clrf	(_tail_car_queue+1)& (0+255),b
  4696  00282A                     
  4697                           ; BSR set to: 0
  4698                           ;main.c: 548:     car_queue_size++;
  4699  00282A  4BAA               	infsnz	_car_queue_size& (0+255),f,b
  4700  00282C  2BAB               	incf	(_car_queue_size+1)& (0+255),f,b
  4701  00282E                     l309:
  4702                           
  4703                           ; BSR set to: 0
  4704  00282E  0012               	return		;funcret
  4705  002830                     __end_of_push_car_queue:
  4706                           	callstack 0
  4707                           
  4708 ;; *************** function _exit *****************
  4709 ;; Defined at:
  4710 ;;		line 749 in file "main.c"
  4711 ;; Parameters:    Size  Location     Type
  4712 ;;  carToExit       2   24[COMRAM] int 
  4713 ;; Auto vars:     Size  Location     Type
  4714 ;;  msg             8   32[COMRAM] struct out_msg
  4715 ;;  space_msg       8   52[COMRAM] struct out_msg
  4716 ;;  popped_car      2   48[COMRAM] int 
  4717 ;;  i               2   63[COMRAM] int 
  4718 ;;  i               2   50[COMRAM] int 
  4719 ;;  msg             8   40[COMRAM] struct out_msg
  4720 ;;  exit_car_slo    2   61[COMRAM] int 
  4721 ;;  entranceTime    2   30[COMRAM] int 
  4722 ;;  fee             2   28[COMRAM] int 
  4723 ;;  exit_car_lev    1   60[COMRAM] unsigned char 
  4724 ;; Return value:  Size  Location     Type
  4725 ;;                  1    wreg      void 
  4726 ;; Registers used:
  4727 ;;		wreg, fsr0l, fsr0h, fsr1l, fsr1h, fsr2l, fsr2h, status,2, status,0, prodl, prodh, cstack
  4728 ;; Tracked objects:
  4729 ;;		On entry : 0/0
  4730 ;;		On exit  : 0/0
  4731 ;;		Unchanged: 0/0
  4732 ;; Data sizes:     COMRAM   BANK0   BANK1   BANK2   BANK3   BANK4   BANK5   BANK6   BANK7   BANK8   BANK9  BANK10  BANK1
      +1  BANK12  BANK13  BANK14  BANK15
  4733 ;;      Params:         2       0       0       0       0       0       0       0       0       0       0       0       
      +0       0       0       0       0
  4734 ;;      Locals:        37       0       0       0       0       0       0       0       0       0       0       0       
      +0       0       0       0       0
  4735 ;;      Temps:          2       0       0       0       0       0       0       0       0       0       0       0       
      +0       0       0       0       0
  4736 ;;      Totals:        41       0       0       0       0       0       0       0       0       0       0       0       
      +0       0       0       0       0
  4737 ;;Total ram usage:       41 bytes
  4738 ;; Hardware stack levels used:    1
  4739 ;; Hardware stack levels required when called:    6
  4740 ;; This function calls:
  4741 ;;		___wmul
  4742 ;;		_calculateFee
  4743 ;;		_level_to_index
  4744 ;;		_pop_car_queue
  4745 ;;		_push_msg_queue
  4746 ;; This function is called by:
  4747 ;;		_execute_command
  4748 ;; This function uses a non-reentrant model
  4749 ;;
  4750                           
  4751                           	psect	text15
  4752  000012                     __ptext15:
  4753                           	callstack 0
  4754  000012                     _exit:
  4755                           	callstack 22
  4756  000012                     
  4757                           ;main.c: 751:     for (int i = 0; i < reserveIndex; ++i) {
  4758  000012  0E00               	movlw	0
  4759  000014  6E34               	movwf	(exit@i+1)^0,c
  4760  000016  0E00               	movlw	0
  4761  000018  6E33               	movwf	exit@i^0,c
  4762  00001A  EF95  F000         	goto	l3879
  4763  00001E                     l3855:
  4764                           
  4765                           ;main.c: 752:         if (reserveArr[i].plateNumber == carToExit && reserveArr[i].filled
      +                           == 1) {
  4766  00001E  C033  F00D         	movff	exit@i,___wmul@multiplier
  4767  000022  C034  F00E         	movff	exit@i+1,___wmul@multiplier+1
  4768  000026  0E00               	movlw	0
  4769  000028  6E10               	movwf	(___wmul@multiplicand+1)^0,c
  4770  00002A  0E07               	movlw	7
  4771  00002C  6E0F               	movwf	___wmul@multiplicand^0,c
  4772  00002E  ECA8  F014         	call	___wmul	;wreg free
  4773  000032  0E80               	movlw	low _reserveArr
  4774  000034  240D               	addwf	?___wmul^0,w,c
  4775  000036  6ED9               	movwf	fsr2l,c
  4776  000038  0E07               	movlw	high _reserveArr
  4777  00003A  200E               	addwfc	(?___wmul+1)^0,w,c
  4778  00003C  6EDA               	movwf	fsr2h,c
  4779  00003E  5019               	movf	exit@carToExit^0,w,c
  4780  000040  18DE               	xorwf	postinc2,w,c
  4781  000042  E107               	bnz	u3391
  4782  000044  501A               	movf	(exit@carToExit+1)^0,w,c
  4783  000046  18DE               	xorwf	postinc2,w,c
  4784  000048  A4D8               	btfss	status,2,c
  4785  00004A  EF29  F000         	goto	u3391
  4786  00004E  EF2B  F000         	goto	u3390
  4787  000052                     u3391:
  4788  000052  EF93  F000         	goto	l3877
  4789  000056                     u3390:
  4790  000056  C033  F00D         	movff	exit@i,___wmul@multiplier
  4791  00005A  C034  F00E         	movff	exit@i+1,___wmul@multiplier+1
  4792  00005E  0E00               	movlw	0
  4793  000060  6E10               	movwf	(___wmul@multiplicand+1)^0,c
  4794  000062  0E07               	movlw	7
  4795  000064  6E0F               	movwf	___wmul@multiplicand^0,c
  4796  000066  ECA8  F014         	call	___wmul	;wreg free
  4797  00006A  0E85               	movlw	low (_reserveArr+5)
  4798  00006C  240D               	addwf	?___wmul^0,w,c
  4799  00006E  6ED9               	movwf	fsr2l,c
  4800  000070  0E07               	movlw	high (_reserveArr+5)
  4801  000072  200E               	addwfc	(?___wmul+1)^0,w,c
  4802  000074  6EDA               	movwf	fsr2h,c
  4803  000076  04DE               	decf	postinc2,w,c
  4804  000078  10DE               	iorwf	postinc2,w,c
  4805  00007A  A4D8               	btfss	status,2,c
  4806  00007C  EF42  F000         	goto	u3401
  4807  000080  EF44  F000         	goto	u3400
  4808  000084                     u3401:
  4809  000084  EF93  F000         	goto	l3877
  4810  000088                     u3400:
  4811  000088                     
  4812                           ;main.c: 753:             reserveArr[i].filled = 0;
  4813  000088  C033  F00D         	movff	exit@i,___wmul@multiplier
  4814  00008C  C034  F00E         	movff	exit@i+1,___wmul@multiplier+1
  4815  000090  0E00               	movlw	0
  4816  000092  6E10               	movwf	(___wmul@multiplicand+1)^0,c
  4817  000094  0E07               	movlw	7
  4818  000096  6E0F               	movwf	___wmul@multiplicand^0,c
  4819  000098  ECA8  F014         	call	___wmul	;wreg free
  4820  00009C  0E85               	movlw	low (_reserveArr+5)
  4821  00009E  240D               	addwf	?___wmul^0,w,c
  4822  0000A0  6ED9               	movwf	fsr2l,c
  4823  0000A2  0E07               	movlw	high (_reserveArr+5)
  4824  0000A4  200E               	addwfc	(?___wmul+1)^0,w,c
  4825  0000A6  6EDA               	movwf	fsr2h,c
  4826  0000A8  0E00               	movlw	0
  4827  0000AA  6EDE               	movwf	postinc2,c
  4828  0000AC  0E00               	movlw	0
  4829  0000AE  6EDD               	movwf	postdec2,c
  4830  0000B0                     
  4831                           ;main.c: 755:             out_msg msg;;main.c: 756:             msg.licence_num = carToE
      +                          xit;
  4832  0000B0  C019  F021         	movff	exit@carToExit,exit@msg
  4833  0000B4  C01A  F022         	movff	exit@carToExit+1,exit@msg+1
  4834  0000B8                     
  4835                           ;main.c: 757:             msg.total_fee = 0;
  4836  0000B8  0E00               	movlw	0
  4837  0000BA  6E28               	movwf	(exit@msg+7)^0,c
  4838  0000BC  0E00               	movlw	0
  4839  0000BE  6E27               	movwf	(exit@msg+6)^0,c
  4840  0000C0                     
  4841                           ;main.c: 758:             msg.msg_type = 'F';
  4842  0000C0  0E46               	movlw	70
  4843  0000C2  6E26               	movwf	(exit@msg+5)^0,c
  4844  0000C4                     
  4845                           ;main.c: 759:             push_msg_queue(msg);
  4846  0000C4  EE20  F021         	lfsr	2,exit@msg
  4847  0000C8  EE00  F00D         	lfsr	0,push_msg_queue@msg
  4848  0000CC  0E07               	movlw	7
  4849  0000CE                     u3411:
  4850  0000CE  CFDB FFEB          	movff	plusw2,plusw0
  4851  0000D2  06E8               	decf	wreg,f,c
  4852  0000D4  E2FC               	bc	u3411
  4853  0000D6  EC96  F012         	call	_push_msg_queue	;wreg free
  4854  0000DA                     
  4855                           ;main.c: 760:             total_empty_slots++;
  4856  0000DA  4A4D               	infsnz	_total_empty_slots^0,f,c
  4857  0000DC  2A4E               	incf	(_total_empty_slots+1)^0,f,c
  4858  0000DE                     
  4859                           ;main.c: 761:             empty_reserved_slots++;
  4860  0000DE  0100               	movlb	0	; () banked
  4861  0000E0  4BA0               	infsnz	_empty_reserved_slots& (0+255),f,b
  4862  0000E2  2BA1               	incf	(_empty_reserved_slots+1)& (0+255),f,b
  4863  0000E4                     
  4864                           ; BSR set to: 0
  4865                           ;main.c: 762:             empty_spaces[level_to_index(reserveArr[i].reservedLevel)]++;
  4866  0000E4  C033  F00D         	movff	exit@i,___wmul@multiplier
  4867  0000E8  C034  F00E         	movff	exit@i+1,___wmul@multiplier+1
  4868  0000EC  0E00               	movlw	0
  4869  0000EE  6E10               	movwf	(___wmul@multiplicand+1)^0,c
  4870  0000F0  0E07               	movlw	7
  4871  0000F2  6E0F               	movwf	___wmul@multiplicand^0,c
  4872  0000F4  ECA8  F014         	call	___wmul	;wreg free
  4873  0000F8  0E84               	movlw	low (_reserveArr+4)
  4874  0000FA  240D               	addwf	?___wmul^0,w,c
  4875  0000FC  6ED9               	movwf	fsr2l,c
  4876  0000FE  0E07               	movlw	high (_reserveArr+4)
  4877  000100  200E               	addwfc	(?___wmul+1)^0,w,c
  4878  000102  6EDA               	movwf	fsr2h,c
  4879  000104  50DF               	movf	indf2,w,c
  4880  000106  ECD0  F012         	call	_level_to_index
  4881  00010A  90D8               	bcf	status,0,c
  4882  00010C  360D               	rlcf	?_level_to_index^0,f,c
  4883  00010E  360E               	rlcf	(?_level_to_index+1)^0,f,c
  4884  000110  0EEA               	movlw	low _empty_spaces
  4885  000112  240D               	addwf	?_level_to_index^0,w,c
  4886  000114  6ED9               	movwf	fsr2l,c
  4887  000116  0E00               	movlw	high _empty_spaces
  4888  000118  200E               	addwfc	(?_level_to_index+1)^0,w,c
  4889  00011A  6EDA               	movwf	fsr2h,c
  4890  00011C  2ADE               	incf	postinc2,f,c
  4891  00011E  0E00               	movlw	0
  4892  000120  22DD               	addwfc	postdec2,f,c
  4893  000122  EF99  F003         	goto	l370
  4894  000126                     l3877:
  4895                           
  4896                           ;main.c: 765:     }
  4897  000126  4A33               	infsnz	exit@i^0,f,c
  4898  000128  2A34               	incf	(exit@i+1)^0,f,c
  4899  00012A                     l3879:
  4900  00012A  5047               	movf	_reserveIndex^0,w,c
  4901  00012C  5C33               	subwf	exit@i^0,w,c
  4902  00012E  5034               	movf	(exit@i+1)^0,w,c
  4903  000130  0A80               	xorlw	128
  4904  000132  6E1B               	movwf	??_exit^0,c
  4905  000134  5048               	movf	(_reserveIndex+1)^0,w,c
  4906  000136  0A80               	xorlw	128
  4907  000138  581B               	subwfb	??_exit^0,w,c
  4908  00013A  A0D8               	btfss	status,0,c
  4909  00013C  EFA2  F000         	goto	u3421
  4910  000140  EFA4  F000         	goto	u3420
  4911  000144                     u3421:
  4912  000144  EF0F  F000         	goto	l3855
  4913  000148                     u3420:
  4914  000148                     
  4915                           ;main.c: 767:     int entranceTime = -1;
  4916  000148  681F               	setf	exit@entranceTime^0,c
  4917  00014A  6820               	setf	(exit@entranceTime+1)^0,c
  4918  00014C                     
  4919                           ;main.c: 768:     char exit_car_level;;main.c: 769:     int exit_car_slot;;main.c: 770: 
      +                              for(int i = 0; i < 10; i++){
  4920  00014C  0E00               	movlw	0
  4921  00014E  6E41               	movwf	(exit@i_881+1)^0,c
  4922  000150  0E00               	movlw	0
  4923  000152  6E40               	movwf	exit@i_881^0,c
  4924  000154                     l3887:
  4925                           
  4926                           ;main.c: 771:         if(parkA[i].plateNumber == carToExit){
  4927  000154  C040  F00D         	movff	exit@i_881,___wmul@multiplier
  4928  000158  C041  F00E         	movff	exit@i_881+1,___wmul@multiplier+1
  4929  00015C  0E00               	movlw	0
  4930  00015E  6E10               	movwf	(___wmul@multiplicand+1)^0,c
  4931  000160  0E06               	movlw	6
  4932  000162  6E0F               	movwf	___wmul@multiplicand^0,c
  4933  000164  ECA8  F014         	call	___wmul	;wreg free
  4934  000168  0EB4               	movlw	low _parkA
  4935  00016A  240D               	addwf	?___wmul^0,w,c
  4936  00016C  6ED9               	movwf	fsr2l,c
  4937  00016E  0E01               	movlw	high _parkA
  4938  000170  200E               	addwfc	(?___wmul+1)^0,w,c
  4939  000172  6EDA               	movwf	fsr2h,c
  4940  000174  5019               	movf	exit@carToExit^0,w,c
  4941  000176  18DE               	xorwf	postinc2,w,c
  4942  000178  E107               	bnz	u3431
  4943  00017A  501A               	movf	(exit@carToExit+1)^0,w,c
  4944  00017C  18DE               	xorwf	postinc2,w,c
  4945  00017E  A4D8               	btfss	status,2,c
  4946  000180  EFC4  F000         	goto	u3431
  4947  000184  EFC6  F000         	goto	u3430
  4948  000188                     u3431:
  4949  000188  EF0C  F001         	goto	l3899
  4950  00018C                     u3430:
  4951  00018C                     
  4952                           ;main.c: 772:             entranceTime = parkA[i].entranceTime;
  4953  00018C  C040  F00D         	movff	exit@i_881,___wmul@multiplier
  4954  000190  C041  F00E         	movff	exit@i_881+1,___wmul@multiplier+1
  4955  000194  0E00               	movlw	0
  4956  000196  6E10               	movwf	(___wmul@multiplicand+1)^0,c
  4957  000198  0E06               	movlw	6
  4958  00019A  6E0F               	movwf	___wmul@multiplicand^0,c
  4959  00019C  ECA8  F014         	call	___wmul	;wreg free
  4960  0001A0  0EB8               	movlw	low (_parkA+4)
  4961  0001A2  240D               	addwf	?___wmul^0,w,c
  4962  0001A4  6ED9               	movwf	fsr2l,c
  4963  0001A6  0E01               	movlw	high (_parkA+4)
  4964  0001A8  200E               	addwfc	(?___wmul+1)^0,w,c
  4965  0001AA  6EDA               	movwf	fsr2h,c
  4966  0001AC  CFDE F01F          	movff	postinc2,exit@entranceTime
  4967  0001B0  CFDD F020          	movff	postdec2,exit@entranceTime+1
  4968  0001B4                     
  4969                           ;main.c: 773:             exit_car_slot = i+1;
  4970  0001B4  0E01               	movlw	1
  4971  0001B6  2440               	addwf	exit@i_881^0,w,c
  4972  0001B8  6E3E               	movwf	exit@exit_car_slot^0,c
  4973  0001BA  0E00               	movlw	0
  4974  0001BC  2041               	addwfc	(exit@i_881+1)^0,w,c
  4975  0001BE  6E3F               	movwf	(exit@exit_car_slot+1)^0,c
  4976  0001C0                     
  4977                           ;main.c: 774:             exit_car_level = 'A';
  4978  0001C0  0E41               	movlw	65
  4979  0001C2  6E3D               	movwf	exit@exit_car_level^0,c
  4980  0001C4                     
  4981                           ;main.c: 775:             parkA[i].plateNumber = -1;
  4982  0001C4  C040  F00D         	movff	exit@i_881,___wmul@multiplier
  4983  0001C8  C041  F00E         	movff	exit@i_881+1,___wmul@multiplier+1
  4984  0001CC  0E00               	movlw	0
  4985  0001CE  6E10               	movwf	(___wmul@multiplicand+1)^0,c
  4986  0001D0  0E06               	movlw	6
  4987  0001D2  6E0F               	movwf	___wmul@multiplicand^0,c
  4988  0001D4  ECA8  F014         	call	___wmul	;wreg free
  4989  0001D8  0EB4               	movlw	low _parkA
  4990  0001DA  240D               	addwf	?___wmul^0,w,c
  4991  0001DC  6ED9               	movwf	fsr2l,c
  4992  0001DE  0E01               	movlw	high _parkA
  4993  0001E0  200E               	addwfc	(?___wmul+1)^0,w,c
  4994  0001E2  6EDA               	movwf	fsr2h,c
  4995  0001E4  0EFF               	movlw	255
  4996  0001E6  6EDE               	movwf	postinc2,c
  4997  0001E8  0EFF               	movlw	255
  4998  0001EA  6EDD               	movwf	postdec2,c
  4999  0001EC                     
  5000                           ;main.c: 776:             parkA[i].entranceTime = -1;
  5001  0001EC  C040  F00D         	movff	exit@i_881,___wmul@multiplier
  5002  0001F0  C041  F00E         	movff	exit@i_881+1,___wmul@multiplier+1
  5003  0001F4  0E00               	movlw	0
  5004  0001F6  6E10               	movwf	(___wmul@multiplicand+1)^0,c
  5005  0001F8  0E06               	movlw	6
  5006  0001FA  6E0F               	movwf	___wmul@multiplicand^0,c
  5007  0001FC  ECA8  F014         	call	___wmul	;wreg free
  5008  000200  0EB8               	movlw	low (_parkA+4)
  5009  000202  240D               	addwf	?___wmul^0,w,c
  5010  000204  6ED9               	movwf	fsr2l,c
  5011  000206  0E01               	movlw	high (_parkA+4)
  5012  000208  200E               	addwfc	(?___wmul+1)^0,w,c
  5013  00020A  6EDA               	movwf	fsr2h,c
  5014  00020C  0EFF               	movlw	255
  5015  00020E  6EDE               	movwf	postinc2,c
  5016  000210  0EFF               	movlw	255
  5017  000212  6EDD               	movwf	postdec2,c
  5018                           
  5019                           ;main.c: 777:             break;
  5020  000214  EF42  F002         	goto	l3939
  5021  000218                     l3899:
  5022                           
  5023                           ;main.c: 779:         if(parkB[i].plateNumber == carToExit){
  5024  000218  C040  F00D         	movff	exit@i_881,___wmul@multiplier
  5025  00021C  C041  F00E         	movff	exit@i_881+1,___wmul@multiplier+1
  5026  000220  0E00               	movlw	0
  5027  000222  6E10               	movwf	(___wmul@multiplicand+1)^0,c
  5028  000224  0E06               	movlw	6
  5029  000226  6E0F               	movwf	___wmul@multiplicand^0,c
  5030  000228  ECA8  F014         	call	___wmul	;wreg free
  5031  00022C  0E78               	movlw	low _parkB
  5032  00022E  240D               	addwf	?___wmul^0,w,c
  5033  000230  6ED9               	movwf	fsr2l,c
  5034  000232  0E01               	movlw	high _parkB
  5035  000234  200E               	addwfc	(?___wmul+1)^0,w,c
  5036  000236  6EDA               	movwf	fsr2h,c
  5037  000238  5019               	movf	exit@carToExit^0,w,c
  5038  00023A  18DE               	xorwf	postinc2,w,c
  5039  00023C  E107               	bnz	u3441
  5040  00023E  501A               	movf	(exit@carToExit+1)^0,w,c
  5041  000240  18DE               	xorwf	postinc2,w,c
  5042  000242  A4D8               	btfss	status,2,c
  5043  000244  EF26  F001         	goto	u3441
  5044  000248  EF28  F001         	goto	u3440
  5045  00024C                     u3441:
  5046  00024C  EF6E  F001         	goto	l3911
  5047  000250                     u3440:
  5048  000250                     
  5049                           ;main.c: 780:             entranceTime = parkB[i].entranceTime;
  5050  000250  C040  F00D         	movff	exit@i_881,___wmul@multiplier
  5051  000254  C041  F00E         	movff	exit@i_881+1,___wmul@multiplier+1
  5052  000258  0E00               	movlw	0
  5053  00025A  6E10               	movwf	(___wmul@multiplicand+1)^0,c
  5054  00025C  0E06               	movlw	6
  5055  00025E  6E0F               	movwf	___wmul@multiplicand^0,c
  5056  000260  ECA8  F014         	call	___wmul	;wreg free
  5057  000264  0E7C               	movlw	low (_parkB+4)
  5058  000266  240D               	addwf	?___wmul^0,w,c
  5059  000268  6ED9               	movwf	fsr2l,c
  5060  00026A  0E01               	movlw	high (_parkB+4)
  5061  00026C  200E               	addwfc	(?___wmul+1)^0,w,c
  5062  00026E  6EDA               	movwf	fsr2h,c
  5063  000270  CFDE F01F          	movff	postinc2,exit@entranceTime
  5064  000274  CFDD F020          	movff	postdec2,exit@entranceTime+1
  5065  000278                     
  5066                           ;main.c: 781:             exit_car_slot = i+1;
  5067  000278  0E01               	movlw	1
  5068  00027A  2440               	addwf	exit@i_881^0,w,c
  5069  00027C  6E3E               	movwf	exit@exit_car_slot^0,c
  5070  00027E  0E00               	movlw	0
  5071  000280  2041               	addwfc	(exit@i_881+1)^0,w,c
  5072  000282  6E3F               	movwf	(exit@exit_car_slot+1)^0,c
  5073  000284                     
  5074                           ;main.c: 782:             exit_car_level = 'B';
  5075  000284  0E42               	movlw	66
  5076  000286  6E3D               	movwf	exit@exit_car_level^0,c
  5077  000288                     
  5078                           ;main.c: 783:             parkB[i].plateNumber = -1;
  5079  000288  C040  F00D         	movff	exit@i_881,___wmul@multiplier
  5080  00028C  C041  F00E         	movff	exit@i_881+1,___wmul@multiplier+1
  5081  000290  0E00               	movlw	0
  5082  000292  6E10               	movwf	(___wmul@multiplicand+1)^0,c
  5083  000294  0E06               	movlw	6
  5084  000296  6E0F               	movwf	___wmul@multiplicand^0,c
  5085  000298  ECA8  F014         	call	___wmul	;wreg free
  5086  00029C  0E78               	movlw	low _parkB
  5087  00029E  240D               	addwf	?___wmul^0,w,c
  5088  0002A0  6ED9               	movwf	fsr2l,c
  5089  0002A2  0E01               	movlw	high _parkB
  5090  0002A4  200E               	addwfc	(?___wmul+1)^0,w,c
  5091  0002A6  6EDA               	movwf	fsr2h,c
  5092  0002A8  0EFF               	movlw	255
  5093  0002AA  6EDE               	movwf	postinc2,c
  5094  0002AC  0EFF               	movlw	255
  5095  0002AE  6EDD               	movwf	postdec2,c
  5096  0002B0                     
  5097                           ;main.c: 784:             parkB[i].entranceTime = -1;
  5098  0002B0  C040  F00D         	movff	exit@i_881,___wmul@multiplier
  5099  0002B4  C041  F00E         	movff	exit@i_881+1,___wmul@multiplier+1
  5100  0002B8  0E00               	movlw	0
  5101  0002BA  6E10               	movwf	(___wmul@multiplicand+1)^0,c
  5102  0002BC  0E06               	movlw	6
  5103  0002BE  6E0F               	movwf	___wmul@multiplicand^0,c
  5104  0002C0  ECA8  F014         	call	___wmul	;wreg free
  5105  0002C4  0E7C               	movlw	low (_parkB+4)
  5106  0002C6  240D               	addwf	?___wmul^0,w,c
  5107  0002C8  6ED9               	movwf	fsr2l,c
  5108  0002CA  0E01               	movlw	high (_parkB+4)
  5109  0002CC  200E               	addwfc	(?___wmul+1)^0,w,c
  5110  0002CE  6EDA               	movwf	fsr2h,c
  5111  0002D0  0EFF               	movlw	255
  5112  0002D2  6EDE               	movwf	postinc2,c
  5113  0002D4  0EFF               	movlw	255
  5114  0002D6  6EDD               	movwf	postdec2,c
  5115                           
  5116                           ;main.c: 785:             break;
  5117  0002D8  EF42  F002         	goto	l3939
  5118  0002DC                     l3911:
  5119                           
  5120                           ;main.c: 787:         if(parkC[i].plateNumber == carToExit){
  5121  0002DC  C040  F00D         	movff	exit@i_881,___wmul@multiplier
  5122  0002E0  C041  F00E         	movff	exit@i_881+1,___wmul@multiplier+1
  5123  0002E4  0E00               	movlw	0
  5124  0002E6  6E10               	movwf	(___wmul@multiplicand+1)^0,c
  5125  0002E8  0E06               	movlw	6
  5126  0002EA  6E0F               	movwf	___wmul@multiplicand^0,c
  5127  0002EC  ECA8  F014         	call	___wmul	;wreg free
  5128  0002F0  0E3C               	movlw	low _parkC
  5129  0002F2  240D               	addwf	?___wmul^0,w,c
  5130  0002F4  6ED9               	movwf	fsr2l,c
  5131  0002F6  0E01               	movlw	high _parkC
  5132  0002F8  200E               	addwfc	(?___wmul+1)^0,w,c
  5133  0002FA  6EDA               	movwf	fsr2h,c
  5134  0002FC  5019               	movf	exit@carToExit^0,w,c
  5135  0002FE  18DE               	xorwf	postinc2,w,c
  5136  000300  E107               	bnz	u3451
  5137  000302  501A               	movf	(exit@carToExit+1)^0,w,c
  5138  000304  18DE               	xorwf	postinc2,w,c
  5139  000306  A4D8               	btfss	status,2,c
  5140  000308  EF88  F001         	goto	u3451
  5141  00030C  EF8A  F001         	goto	u3450
  5142  000310                     u3451:
  5143  000310  EFD0  F001         	goto	l3923
  5144  000314                     u3450:
  5145  000314                     
  5146                           ;main.c: 788:             entranceTime = parkC[i].entranceTime;
  5147  000314  C040  F00D         	movff	exit@i_881,___wmul@multiplier
  5148  000318  C041  F00E         	movff	exit@i_881+1,___wmul@multiplier+1
  5149  00031C  0E00               	movlw	0
  5150  00031E  6E10               	movwf	(___wmul@multiplicand+1)^0,c
  5151  000320  0E06               	movlw	6
  5152  000322  6E0F               	movwf	___wmul@multiplicand^0,c
  5153  000324  ECA8  F014         	call	___wmul	;wreg free
  5154  000328  0E40               	movlw	low (_parkC+4)
  5155  00032A  240D               	addwf	?___wmul^0,w,c
  5156  00032C  6ED9               	movwf	fsr2l,c
  5157  00032E  0E01               	movlw	high (_parkC+4)
  5158  000330  200E               	addwfc	(?___wmul+1)^0,w,c
  5159  000332  6EDA               	movwf	fsr2h,c
  5160  000334  CFDE F01F          	movff	postinc2,exit@entranceTime
  5161  000338  CFDD F020          	movff	postdec2,exit@entranceTime+1
  5162  00033C                     
  5163                           ;main.c: 789:             exit_car_slot = i+1;
  5164  00033C  0E01               	movlw	1
  5165  00033E  2440               	addwf	exit@i_881^0,w,c
  5166  000340  6E3E               	movwf	exit@exit_car_slot^0,c
  5167  000342  0E00               	movlw	0
  5168  000344  2041               	addwfc	(exit@i_881+1)^0,w,c
  5169  000346  6E3F               	movwf	(exit@exit_car_slot+1)^0,c
  5170  000348                     
  5171                           ;main.c: 790:             exit_car_level = 'C';
  5172  000348  0E43               	movlw	67
  5173  00034A  6E3D               	movwf	exit@exit_car_level^0,c
  5174  00034C                     
  5175                           ;main.c: 791:             parkC[i].plateNumber = -1;
  5176  00034C  C040  F00D         	movff	exit@i_881,___wmul@multiplier
  5177  000350  C041  F00E         	movff	exit@i_881+1,___wmul@multiplier+1
  5178  000354  0E00               	movlw	0
  5179  000356  6E10               	movwf	(___wmul@multiplicand+1)^0,c
  5180  000358  0E06               	movlw	6
  5181  00035A  6E0F               	movwf	___wmul@multiplicand^0,c
  5182  00035C  ECA8  F014         	call	___wmul	;wreg free
  5183  000360  0E3C               	movlw	low _parkC
  5184  000362  240D               	addwf	?___wmul^0,w,c
  5185  000364  6ED9               	movwf	fsr2l,c
  5186  000366  0E01               	movlw	high _parkC
  5187  000368  200E               	addwfc	(?___wmul+1)^0,w,c
  5188  00036A  6EDA               	movwf	fsr2h,c
  5189  00036C  0EFF               	movlw	255
  5190  00036E  6EDE               	movwf	postinc2,c
  5191  000370  0EFF               	movlw	255
  5192  000372  6EDD               	movwf	postdec2,c
  5193  000374                     
  5194                           ;main.c: 792:             parkC[i].entranceTime = -1;
  5195  000374  C040  F00D         	movff	exit@i_881,___wmul@multiplier
  5196  000378  C041  F00E         	movff	exit@i_881+1,___wmul@multiplier+1
  5197  00037C  0E00               	movlw	0
  5198  00037E  6E10               	movwf	(___wmul@multiplicand+1)^0,c
  5199  000380  0E06               	movlw	6
  5200  000382  6E0F               	movwf	___wmul@multiplicand^0,c
  5201  000384  ECA8  F014         	call	___wmul	;wreg free
  5202  000388  0E40               	movlw	low (_parkC+4)
  5203  00038A  240D               	addwf	?___wmul^0,w,c
  5204  00038C  6ED9               	movwf	fsr2l,c
  5205  00038E  0E01               	movlw	high (_parkC+4)
  5206  000390  200E               	addwfc	(?___wmul+1)^0,w,c
  5207  000392  6EDA               	movwf	fsr2h,c
  5208  000394  0EFF               	movlw	255
  5209  000396  6EDE               	movwf	postinc2,c
  5210  000398  0EFF               	movlw	255
  5211  00039A  6EDD               	movwf	postdec2,c
  5212                           
  5213                           ;main.c: 793:             break;
  5214  00039C  EF42  F002         	goto	l3939
  5215  0003A0                     l3923:
  5216                           
  5217                           ;main.c: 795:         if(parkD[i].plateNumber == carToExit){
  5218  0003A0  C040  F00D         	movff	exit@i_881,___wmul@multiplier
  5219  0003A4  C041  F00E         	movff	exit@i_881+1,___wmul@multiplier+1
  5220  0003A8  0E00               	movlw	0
  5221  0003AA  6E10               	movwf	(___wmul@multiplicand+1)^0,c
  5222  0003AC  0E06               	movlw	6
  5223  0003AE  6E0F               	movwf	___wmul@multiplicand^0,c
  5224  0003B0  ECA8  F014         	call	___wmul	;wreg free
  5225  0003B4  0E00               	movlw	low _parkD
  5226  0003B6  240D               	addwf	?___wmul^0,w,c
  5227  0003B8  6ED9               	movwf	fsr2l,c
  5228  0003BA  0E01               	movlw	high _parkD
  5229  0003BC  200E               	addwfc	(?___wmul+1)^0,w,c
  5230  0003BE  6EDA               	movwf	fsr2h,c
  5231  0003C0  5019               	movf	exit@carToExit^0,w,c
  5232  0003C2  18DE               	xorwf	postinc2,w,c
  5233  0003C4  E107               	bnz	u3461
  5234  0003C6  501A               	movf	(exit@carToExit+1)^0,w,c
  5235  0003C8  18DE               	xorwf	postinc2,w,c
  5236  0003CA  A4D8               	btfss	status,2,c
  5237  0003CC  EFEA  F001         	goto	u3461
  5238  0003D0  EFEC  F001         	goto	u3460
  5239  0003D4                     u3461:
  5240  0003D4  EF32  F002         	goto	l3935
  5241  0003D8                     u3460:
  5242  0003D8                     
  5243                           ;main.c: 796:             entranceTime = parkD[i].entranceTime;
  5244  0003D8  C040  F00D         	movff	exit@i_881,___wmul@multiplier
  5245  0003DC  C041  F00E         	movff	exit@i_881+1,___wmul@multiplier+1
  5246  0003E0  0E00               	movlw	0
  5247  0003E2  6E10               	movwf	(___wmul@multiplicand+1)^0,c
  5248  0003E4  0E06               	movlw	6
  5249  0003E6  6E0F               	movwf	___wmul@multiplicand^0,c
  5250  0003E8  ECA8  F014         	call	___wmul	;wreg free
  5251  0003EC  0E04               	movlw	low (_parkD+4)
  5252  0003EE  240D               	addwf	?___wmul^0,w,c
  5253  0003F0  6ED9               	movwf	fsr2l,c
  5254  0003F2  0E01               	movlw	high (_parkD+4)
  5255  0003F4  200E               	addwfc	(?___wmul+1)^0,w,c
  5256  0003F6  6EDA               	movwf	fsr2h,c
  5257  0003F8  CFDE F01F          	movff	postinc2,exit@entranceTime
  5258  0003FC  CFDD F020          	movff	postdec2,exit@entranceTime+1
  5259  000400                     
  5260                           ;main.c: 797:             exit_car_slot = i+1;
  5261  000400  0E01               	movlw	1
  5262  000402  2440               	addwf	exit@i_881^0,w,c
  5263  000404  6E3E               	movwf	exit@exit_car_slot^0,c
  5264  000406  0E00               	movlw	0
  5265  000408  2041               	addwfc	(exit@i_881+1)^0,w,c
  5266  00040A  6E3F               	movwf	(exit@exit_car_slot+1)^0,c
  5267  00040C                     
  5268                           ;main.c: 798:             exit_car_level = 'D';
  5269  00040C  0E44               	movlw	68
  5270  00040E  6E3D               	movwf	exit@exit_car_level^0,c
  5271  000410                     
  5272                           ;main.c: 799:             parkD[i].plateNumber = -1;
  5273  000410  C040  F00D         	movff	exit@i_881,___wmul@multiplier
  5274  000414  C041  F00E         	movff	exit@i_881+1,___wmul@multiplier+1
  5275  000418  0E00               	movlw	0
  5276  00041A  6E10               	movwf	(___wmul@multiplicand+1)^0,c
  5277  00041C  0E06               	movlw	6
  5278  00041E  6E0F               	movwf	___wmul@multiplicand^0,c
  5279  000420  ECA8  F014         	call	___wmul	;wreg free
  5280  000424  0E00               	movlw	low _parkD
  5281  000426  240D               	addwf	?___wmul^0,w,c
  5282  000428  6ED9               	movwf	fsr2l,c
  5283  00042A  0E01               	movlw	high _parkD
  5284  00042C  200E               	addwfc	(?___wmul+1)^0,w,c
  5285  00042E  6EDA               	movwf	fsr2h,c
  5286  000430  0EFF               	movlw	255
  5287  000432  6EDE               	movwf	postinc2,c
  5288  000434  0EFF               	movlw	255
  5289  000436  6EDD               	movwf	postdec2,c
  5290  000438                     
  5291                           ;main.c: 800:             parkD[i].entranceTime = -1;
  5292  000438  C040  F00D         	movff	exit@i_881,___wmul@multiplier
  5293  00043C  C041  F00E         	movff	exit@i_881+1,___wmul@multiplier+1
  5294  000440  0E00               	movlw	0
  5295  000442  6E10               	movwf	(___wmul@multiplicand+1)^0,c
  5296  000444  0E06               	movlw	6
  5297  000446  6E0F               	movwf	___wmul@multiplicand^0,c
  5298  000448  ECA8  F014         	call	___wmul	;wreg free
  5299  00044C  0E04               	movlw	low (_parkD+4)
  5300  00044E  240D               	addwf	?___wmul^0,w,c
  5301  000450  6ED9               	movwf	fsr2l,c
  5302  000452  0E01               	movlw	high (_parkD+4)
  5303  000454  200E               	addwfc	(?___wmul+1)^0,w,c
  5304  000456  6EDA               	movwf	fsr2h,c
  5305  000458  0EFF               	movlw	255
  5306  00045A  6EDE               	movwf	postinc2,c
  5307  00045C  0EFF               	movlw	255
  5308  00045E  6EDD               	movwf	postdec2,c
  5309                           
  5310                           ;main.c: 801:             break;
  5311  000460  EF42  F002         	goto	l3939
  5312  000464                     l3935:
  5313                           
  5314                           ;main.c: 803:     }
  5315  000464  4A40               	infsnz	exit@i_881^0,f,c
  5316  000466  2A41               	incf	(exit@i_881+1)^0,f,c
  5317  000468  BE41               	btfsc	(exit@i_881+1)^0,7,c
  5318  00046A  EF40  F002         	goto	u3471
  5319  00046E  5041               	movf	(exit@i_881+1)^0,w,c
  5320  000470  E109               	bnz	u3470
  5321  000472  0E0A               	movlw	10
  5322  000474  5C40               	subwf	exit@i_881^0,w,c
  5323  000476  A0D8               	btfss	status,0,c
  5324  000478  EF40  F002         	goto	u3471
  5325  00047C  EF42  F002         	goto	u3470
  5326  000480                     u3471:
  5327  000480  EFAA  F000         	goto	l3887
  5328  000484                     u3470:
  5329  000484                     l3939:
  5330                           
  5331                           ;main.c: 804:     if(entranceTime == -1){
  5332  000484  281F               	incf	exit@entranceTime^0,w,c
  5333  000486  E106               	bnz	u3481
  5334  000488  2820               	incf	(exit@entranceTime+1)^0,w,c
  5335  00048A  A4D8               	btfss	status,2,c
  5336  00048C  EF4A  F002         	goto	u3481
  5337  000490  EF4C  F002         	goto	u3480
  5338  000494                     u3481:
  5339  000494  EF4E  F002         	goto	l3943
  5340  000498                     u3480:
  5341  000498  EF99  F003         	goto	l370
  5342  00049C                     l3943:
  5343                           
  5344                           ;main.c: 807:     total_empty_slots++;
  5345  00049C  4A4D               	infsnz	_total_empty_slots^0,f,c
  5346  00049E  2A4E               	incf	(_total_empty_slots+1)^0,f,c
  5347  0004A0                     
  5348                           ;main.c: 808:     empty_spaces[level_to_index(exit_car_level)]++;
  5349  0004A0  503D               	movf	exit@exit_car_level^0,w,c
  5350  0004A2  ECD0  F012         	call	_level_to_index
  5351  0004A6  90D8               	bcf	status,0,c
  5352  0004A8  360D               	rlcf	?_level_to_index^0,f,c
  5353  0004AA  360E               	rlcf	(?_level_to_index+1)^0,f,c
  5354  0004AC  0EEA               	movlw	low _empty_spaces
  5355  0004AE  240D               	addwf	?_level_to_index^0,w,c
  5356  0004B0  6ED9               	movwf	fsr2l,c
  5357  0004B2  0E00               	movlw	high _empty_spaces
  5358  0004B4  200E               	addwfc	(?_level_to_index+1)^0,w,c
  5359  0004B6  6EDA               	movwf	fsr2h,c
  5360  0004B8  2ADE               	incf	postinc2,f,c
  5361  0004BA  0E00               	movlw	0
  5362  0004BC  22DD               	addwfc	postdec2,f,c
  5363  0004BE                     
  5364                           ;main.c: 809:     int fee = calculateFee(entranceTime);
  5365  0004BE  C01F  F015         	movff	exit@entranceTime,calculateFee@entranceTime
  5366  0004C2  C020  F016         	movff	exit@entranceTime+1,calculateFee@entranceTime+1
  5367  0004C6  EC68  F014         	call	_calculateFee	;wreg free
  5368  0004CA  C015  F01D         	movff	?_calculateFee,exit@fee
  5369  0004CE  C016  F01E         	movff	?_calculateFee+1,exit@fee+1
  5370  0004D2                     
  5371                           ;main.c: 810:     INTCONbits.TMR0IE = 0;
  5372  0004D2  9AF2               	bcf	242,5,c	;volatile
  5373  0004D4                     
  5374                           ;main.c: 811:     total_money += fee;
  5375  0004D4  501D               	movf	exit@fee^0,w,c
  5376  0004D6  0100               	movlb	0	; () banked
  5377  0004D8  27B6               	addwf	_total_money& (0+255),f,b
  5378  0004DA  501E               	movf	(exit@fee+1)^0,w,c
  5379  0004DC  23B7               	addwfc	(_total_money+1)& (0+255),f,b
  5380  0004DE                     
  5381                           ; BSR set to: 0
  5382                           ;main.c: 812:     INTCONbits.TMR0IE = 1;
  5383  0004DE  8AF2               	bsf	242,5,c	;volatile
  5384  0004E0                     
  5385                           ; BSR set to: 0
  5386                           ;main.c: 815:     out_msg msg;;main.c: 816:     msg.licence_num = carToExit;
  5387  0004E0  C019  F029         	movff	exit@carToExit,exit@msg_884
  5388  0004E4  C01A  F02A         	movff	exit@carToExit+1,exit@msg_884+1
  5389  0004E8                     
  5390                           ; BSR set to: 0
  5391                           ;main.c: 817:     msg.total_fee = fee;
  5392  0004E8  C01D  F02F         	movff	exit@fee,exit@msg_884+6
  5393  0004EC  C01E  F030         	movff	exit@fee+1,exit@msg_884+7
  5394  0004F0                     
  5395                           ; BSR set to: 0
  5396                           ;main.c: 818:     msg.msg_type = 'F';
  5397  0004F0  0E46               	movlw	70
  5398  0004F2  6E2E               	movwf	(exit@msg_884+5)^0,c
  5399  0004F4                     
  5400                           ; BSR set to: 0
  5401                           ;main.c: 819:     push_msg_queue(msg);
  5402  0004F4  EE20  F029         	lfsr	2,exit@msg_884
  5403  0004F8  EE00  F00D         	lfsr	0,push_msg_queue@msg
  5404  0004FC  0E07               	movlw	7
  5405  0004FE                     u3491:
  5406  0004FE  CFDB FFEB          	movff	plusw2,plusw0
  5407  000502  06E8               	decf	wreg,f,c
  5408  000504  E2FC               	bc	u3491
  5409  000506  EC96  F012         	call	_push_msg_queue	;wreg free
  5410  00050A                     
  5411                           ;main.c: 822:     if(car_queue_size > 0 && (total_empty_slots - empty_reserved_slots > 0
      +                          )){
  5412  00050A  0100               	movlb	0	; () banked
  5413  00050C  BFAB               	btfsc	(_car_queue_size+1)& (0+255),7,b
  5414  00050E  EF91  F002         	goto	u3501
  5415  000512  51AB               	movf	(_car_queue_size+1)& (0+255),w,b
  5416  000514  E108               	bnz	u3500
  5417  000516  05AA               	decf	_car_queue_size& (0+255),w,b
  5418  000518  A0D8               	btfss	status,0,c
  5419  00051A  EF91  F002         	goto	u3501
  5420  00051E  EF93  F002         	goto	u3500
  5421  000522                     u3501:
  5422  000522  EF99  F003         	goto	l370
  5423  000526                     u3500:
  5424  000526                     
  5425                           ; BSR set to: 0
  5426  000526  51A0               	movf	_empty_reserved_slots& (0+255),w,b
  5427  000528  5C4D               	subwf	_total_empty_slots^0,w,c
  5428  00052A  6E1B               	movwf	??_exit^0,c
  5429  00052C  51A1               	movf	(_empty_reserved_slots+1)& (0+255),w,b
  5430  00052E  584E               	subwfb	(_total_empty_slots+1)^0,w,c
  5431  000530  6E1C               	movwf	(??_exit+1)^0,c
  5432  000532  BE1C               	btfsc	(??_exit+1)^0,7,c
  5433  000534  EFA4  F002         	goto	u3511
  5434  000538  501C               	movf	(??_exit+1)^0,w,c
  5435  00053A  E108               	bnz	u3510
  5436  00053C  041B               	decf	??_exit^0,w,c
  5437  00053E  A0D8               	btfss	status,0,c
  5438  000540  EFA4  F002         	goto	u3511
  5439  000544  EFA6  F002         	goto	u3510
  5440  000548                     u3511:
  5441  000548  EF99  F003         	goto	l370
  5442  00054C                     u3510:
  5443  00054C                     
  5444                           ; BSR set to: 0
  5445                           ;main.c: 824:         int popped_car = pop_car_queue();
  5446  00054C  EC71  F013         	call	_pop_car_queue	;wreg free
  5447  000550  C00D  F031         	movff	?_pop_car_queue,exit@popped_car
  5448  000554  C00E  F032         	movff	?_pop_car_queue+1,exit@popped_car+1
  5449  000558                     
  5450                           ;main.c: 825:         total_empty_slots--;
  5451  000558  064D               	decf	_total_empty_slots^0,f,c
  5452  00055A  A0D8               	btfss	status,0,c
  5453  00055C  064E               	decf	(_total_empty_slots+1)^0,f,c
  5454  00055E                     
  5455                           ;main.c: 826:         empty_spaces[level_to_index(exit_car_level)]--;
  5456  00055E  503D               	movf	exit@exit_car_level^0,w,c
  5457  000560  ECD0  F012         	call	_level_to_index
  5458  000564  90D8               	bcf	status,0,c
  5459  000566  360D               	rlcf	?_level_to_index^0,f,c
  5460  000568  360E               	rlcf	(?_level_to_index+1)^0,f,c
  5461  00056A  0EEA               	movlw	low _empty_spaces
  5462  00056C  240D               	addwf	?_level_to_index^0,w,c
  5463  00056E  6ED9               	movwf	fsr2l,c
  5464  000570  0E00               	movlw	high _empty_spaces
  5465  000572  200E               	addwfc	(?_level_to_index+1)^0,w,c
  5466  000574  6EDA               	movwf	fsr2h,c
  5467  000576  06DE               	decf	postinc2,f,c
  5468  000578  0E00               	movlw	0
  5469  00057A  5ADD               	subwfb	postdec2,f,c
  5470  00057C                     
  5471                           ;main.c: 827:         if (exit_car_level == 'A'){
  5472  00057C  0E41               	movlw	65
  5473  00057E  183D               	xorwf	exit@exit_car_level^0,w,c
  5474  000580  A4D8               	btfss	status,2,c
  5475  000582  EFC5  F002         	goto	u3521
  5476  000586  EFC7  F002         	goto	u3520
  5477  00058A                     u3521:
  5478  00058A  EFEF  F002         	goto	l3977
  5479  00058E                     u3520:
  5480  00058E                     
  5481                           ;main.c: 828:             parkA[exit_car_slot-1].plateNumber = popped_car;
  5482  00058E  C03E  F00D         	movff	exit@exit_car_slot,___wmul@multiplier
  5483  000592  C03F  F00E         	movff	exit@exit_car_slot+1,___wmul@multiplier+1
  5484  000596  0E00               	movlw	0
  5485  000598  6E10               	movwf	(___wmul@multiplicand+1)^0,c
  5486  00059A  0E06               	movlw	6
  5487  00059C  6E0F               	movwf	___wmul@multiplicand^0,c
  5488  00059E  ECA8  F014         	call	___wmul	;wreg free
  5489  0005A2  0EAE               	movlw	low (_parkA+65530)
  5490  0005A4  240D               	addwf	?___wmul^0,w,c
  5491  0005A6  6ED9               	movwf	fsr2l,c
  5492  0005A8  0E01               	movlw	high (_parkA+65530)
  5493  0005AA  200E               	addwfc	(?___wmul+1)^0,w,c
  5494  0005AC  6EDA               	movwf	fsr2h,c
  5495  0005AE  C031  FFDE         	movff	exit@popped_car,postinc2
  5496  0005B2  C032  FFDD         	movff	exit@popped_car+1,postdec2
  5497                           
  5498                           ;main.c: 829:             parkA[exit_car_slot-1].entranceTime = general_counter;
  5499  0005B6  C03E  F00D         	movff	exit@exit_car_slot,___wmul@multiplier
  5500  0005BA  C03F  F00E         	movff	exit@exit_car_slot+1,___wmul@multiplier+1
  5501  0005BE  0E00               	movlw	0
  5502  0005C0  6E10               	movwf	(___wmul@multiplicand+1)^0,c
  5503  0005C2  0E06               	movlw	6
  5504  0005C4  6E0F               	movwf	___wmul@multiplicand^0,c
  5505  0005C6  ECA8  F014         	call	___wmul	;wreg free
  5506  0005CA  0EB2               	movlw	low (_parkA+65534)
  5507  0005CC  240D               	addwf	?___wmul^0,w,c
  5508  0005CE  6ED9               	movwf	fsr2l,c
  5509  0005D0  0E01               	movlw	high (_parkA+65534)
  5510  0005D2  200E               	addwfc	(?___wmul+1)^0,w,c
  5511  0005D4  6EDA               	movwf	fsr2h,c
  5512  0005D6  C049  FFDE         	movff	_general_counter,postinc2
  5513  0005DA  C04A  FFDD         	movff	_general_counter+1,postdec2
  5514  0005DE                     l3977:
  5515                           
  5516                           ;main.c: 831:         if (exit_car_level == 'B'){
  5517  0005DE  0E42               	movlw	66
  5518  0005E0  183D               	xorwf	exit@exit_car_level^0,w,c
  5519  0005E2  A4D8               	btfss	status,2,c
  5520  0005E4  EFF6  F002         	goto	u3531
  5521  0005E8  EFF8  F002         	goto	u3530
  5522  0005EC                     u3531:
  5523  0005EC  EF20  F003         	goto	l3981
  5524  0005F0                     u3530:
  5525  0005F0                     
  5526                           ;main.c: 832:             parkB[exit_car_slot-1].plateNumber = popped_car;
  5527  0005F0  C03E  F00D         	movff	exit@exit_car_slot,___wmul@multiplier
  5528  0005F4  C03F  F00E         	movff	exit@exit_car_slot+1,___wmul@multiplier+1
  5529  0005F8  0E00               	movlw	0
  5530  0005FA  6E10               	movwf	(___wmul@multiplicand+1)^0,c
  5531  0005FC  0E06               	movlw	6
  5532  0005FE  6E0F               	movwf	___wmul@multiplicand^0,c
  5533  000600  ECA8  F014         	call	___wmul	;wreg free
  5534  000604  0E72               	movlw	low (_parkB+65530)
  5535  000606  240D               	addwf	?___wmul^0,w,c
  5536  000608  6ED9               	movwf	fsr2l,c
  5537  00060A  0E01               	movlw	high (_parkB+65530)
  5538  00060C  200E               	addwfc	(?___wmul+1)^0,w,c
  5539  00060E  6EDA               	movwf	fsr2h,c
  5540  000610  C031  FFDE         	movff	exit@popped_car,postinc2
  5541  000614  C032  FFDD         	movff	exit@popped_car+1,postdec2
  5542                           
  5543                           ;main.c: 833:             parkB[exit_car_slot-1].entranceTime = general_counter;
  5544  000618  C03E  F00D         	movff	exit@exit_car_slot,___wmul@multiplier
  5545  00061C  C03F  F00E         	movff	exit@exit_car_slot+1,___wmul@multiplier+1
  5546  000620  0E00               	movlw	0
  5547  000622  6E10               	movwf	(___wmul@multiplicand+1)^0,c
  5548  000624  0E06               	movlw	6
  5549  000626  6E0F               	movwf	___wmul@multiplicand^0,c
  5550  000628  ECA8  F014         	call	___wmul	;wreg free
  5551  00062C  0E76               	movlw	low (_parkB+65534)
  5552  00062E  240D               	addwf	?___wmul^0,w,c
  5553  000630  6ED9               	movwf	fsr2l,c
  5554  000632  0E01               	movlw	high (_parkB+65534)
  5555  000634  200E               	addwfc	(?___wmul+1)^0,w,c
  5556  000636  6EDA               	movwf	fsr2h,c
  5557  000638  C049  FFDE         	movff	_general_counter,postinc2
  5558  00063C  C04A  FFDD         	movff	_general_counter+1,postdec2
  5559  000640                     l3981:
  5560                           
  5561                           ;main.c: 835:         if (exit_car_level == 'C'){
  5562  000640  0E43               	movlw	67
  5563  000642  183D               	xorwf	exit@exit_car_level^0,w,c
  5564  000644  A4D8               	btfss	status,2,c
  5565  000646  EF27  F003         	goto	u3541
  5566  00064A  EF29  F003         	goto	u3540
  5567  00064E                     u3541:
  5568  00064E  EF51  F003         	goto	l3985
  5569  000652                     u3540:
  5570  000652                     
  5571                           ;main.c: 836:             parkC[exit_car_slot-1].plateNumber = popped_car;
  5572  000652  C03E  F00D         	movff	exit@exit_car_slot,___wmul@multiplier
  5573  000656  C03F  F00E         	movff	exit@exit_car_slot+1,___wmul@multiplier+1
  5574  00065A  0E00               	movlw	0
  5575  00065C  6E10               	movwf	(___wmul@multiplicand+1)^0,c
  5576  00065E  0E06               	movlw	6
  5577  000660  6E0F               	movwf	___wmul@multiplicand^0,c
  5578  000662  ECA8  F014         	call	___wmul	;wreg free
  5579  000666  0E36               	movlw	low (_parkC+65530)
  5580  000668  240D               	addwf	?___wmul^0,w,c
  5581  00066A  6ED9               	movwf	fsr2l,c
  5582  00066C  0E01               	movlw	high (_parkC+65530)
  5583  00066E  200E               	addwfc	(?___wmul+1)^0,w,c
  5584  000670  6EDA               	movwf	fsr2h,c
  5585  000672  C031  FFDE         	movff	exit@popped_car,postinc2
  5586  000676  C032  FFDD         	movff	exit@popped_car+1,postdec2
  5587                           
  5588                           ;main.c: 837:             parkC[exit_car_slot-1].entranceTime = general_counter;
  5589  00067A  C03E  F00D         	movff	exit@exit_car_slot,___wmul@multiplier
  5590  00067E  C03F  F00E         	movff	exit@exit_car_slot+1,___wmul@multiplier+1
  5591  000682  0E00               	movlw	0
  5592  000684  6E10               	movwf	(___wmul@multiplicand+1)^0,c
  5593  000686  0E06               	movlw	6
  5594  000688  6E0F               	movwf	___wmul@multiplicand^0,c
  5595  00068A  ECA8  F014         	call	___wmul	;wreg free
  5596  00068E  0E3A               	movlw	low (_parkC+65534)
  5597  000690  240D               	addwf	?___wmul^0,w,c
  5598  000692  6ED9               	movwf	fsr2l,c
  5599  000694  0E01               	movlw	high (_parkC+65534)
  5600  000696  200E               	addwfc	(?___wmul+1)^0,w,c
  5601  000698  6EDA               	movwf	fsr2h,c
  5602  00069A  C049  FFDE         	movff	_general_counter,postinc2
  5603  00069E  C04A  FFDD         	movff	_general_counter+1,postdec2
  5604  0006A2                     l3985:
  5605                           
  5606                           ;main.c: 839:         if (exit_car_level == 'D'){
  5607  0006A2  0E44               	movlw	68
  5608  0006A4  183D               	xorwf	exit@exit_car_level^0,w,c
  5609  0006A6  A4D8               	btfss	status,2,c
  5610  0006A8  EF58  F003         	goto	u3551
  5611  0006AC  EF5A  F003         	goto	u3550
  5612  0006B0                     u3551:
  5613  0006B0  EF82  F003         	goto	l3989
  5614  0006B4                     u3550:
  5615  0006B4                     
  5616                           ;main.c: 840:             parkD[exit_car_slot-1].plateNumber = popped_car;
  5617  0006B4  C03E  F00D         	movff	exit@exit_car_slot,___wmul@multiplier
  5618  0006B8  C03F  F00E         	movff	exit@exit_car_slot+1,___wmul@multiplier+1
  5619  0006BC  0E00               	movlw	0
  5620  0006BE  6E10               	movwf	(___wmul@multiplicand+1)^0,c
  5621  0006C0  0E06               	movlw	6
  5622  0006C2  6E0F               	movwf	___wmul@multiplicand^0,c
  5623  0006C4  ECA8  F014         	call	___wmul	;wreg free
  5624  0006C8  0EFA               	movlw	low (_parkD+65530)
  5625  0006CA  240D               	addwf	?___wmul^0,w,c
  5626  0006CC  6ED9               	movwf	fsr2l,c
  5627  0006CE  0E00               	movlw	high (_parkD+65530)
  5628  0006D0  200E               	addwfc	(?___wmul+1)^0,w,c
  5629  0006D2  6EDA               	movwf	fsr2h,c
  5630  0006D4  C031  FFDE         	movff	exit@popped_car,postinc2
  5631  0006D8  C032  FFDD         	movff	exit@popped_car+1,postdec2
  5632                           
  5633                           ;main.c: 841:             parkD[exit_car_slot-1].entranceTime = general_counter;
  5634  0006DC  C03E  F00D         	movff	exit@exit_car_slot,___wmul@multiplier
  5635  0006E0  C03F  F00E         	movff	exit@exit_car_slot+1,___wmul@multiplier+1
  5636  0006E4  0E00               	movlw	0
  5637  0006E6  6E10               	movwf	(___wmul@multiplicand+1)^0,c
  5638  0006E8  0E06               	movlw	6
  5639  0006EA  6E0F               	movwf	___wmul@multiplicand^0,c
  5640  0006EC  ECA8  F014         	call	___wmul	;wreg free
  5641  0006F0  0EFE               	movlw	low (_parkD+65534)
  5642  0006F2  240D               	addwf	?___wmul^0,w,c
  5643  0006F4  6ED9               	movwf	fsr2l,c
  5644  0006F6  0E00               	movlw	high (_parkD+65534)
  5645  0006F8  200E               	addwfc	(?___wmul+1)^0,w,c
  5646  0006FA  6EDA               	movwf	fsr2h,c
  5647  0006FC  C049  FFDE         	movff	_general_counter,postinc2
  5648  000700  C04A  FFDD         	movff	_general_counter+1,postdec2
  5649  000704                     l3989:
  5650                           
  5651                           ;main.c: 845:         out_msg space_msg;;main.c: 846:         space_msg.level = exit_car
      +                          _level;
  5652  000704  C03D  F037         	movff	exit@exit_car_level,exit@space_msg+2
  5653  000708                     
  5654                           ;main.c: 847:         space_msg.licence_num = popped_car;
  5655  000708  C031  F035         	movff	exit@popped_car,exit@space_msg
  5656  00070C  C032  F036         	movff	exit@popped_car+1,exit@space_msg+1
  5657  000710                     
  5658                           ;main.c: 848:         space_msg.park_spot = exit_car_slot;
  5659  000710  C03E  F038         	movff	exit@exit_car_slot,exit@space_msg+3
  5660  000714  C03F  F039         	movff	exit@exit_car_slot+1,exit@space_msg+4
  5661  000718                     
  5662                           ;main.c: 849:         space_msg.msg_type = 'S';
  5663  000718  0E53               	movlw	83
  5664  00071A  6E3A               	movwf	(exit@space_msg+5)^0,c
  5665  00071C                     
  5666                           ;main.c: 850:         push_msg_queue(space_msg);
  5667  00071C  EE20  F035         	lfsr	2,exit@space_msg
  5668  000720  EE00  F00D         	lfsr	0,push_msg_queue@msg
  5669  000724  0E07               	movlw	7
  5670  000726                     u3561:
  5671  000726  CFDB FFEB          	movff	plusw2,plusw0
  5672  00072A  06E8               	decf	wreg,f,c
  5673  00072C  E2FC               	bc	u3561
  5674  00072E  EC96  F012         	call	_push_msg_queue	;wreg free
  5675  000732                     l370:
  5676  000732  0012               	return		;funcret
  5677  000734                     __end_of_exit:
  5678                           	callstack 0
  5679                           
  5680 ;; *************** function _push_msg_queue *****************
  5681 ;; Defined at:
  5682 ;;		line 561 in file "main.c"
  5683 ;; Parameters:    Size  Location     Type
  5684 ;;  msg             8   12[COMRAM] struct out_msg
  5685 ;; Auto vars:     Size  Location     Type
  5686 ;;  next_tail       2   22[COMRAM] int 
  5687 ;; Return value:  Size  Location     Type
  5688 ;;                  1    wreg      void 
  5689 ;; Registers used:
  5690 ;;		wreg, fsr1l, fsr1h, fsr2l, fsr2h, status,2, status,0
  5691 ;; Tracked objects:
  5692 ;;		On entry : 0/0
  5693 ;;		On exit  : 0/0
  5694 ;;		Unchanged: 0/0
  5695 ;; Data sizes:     COMRAM   BANK0   BANK1   BANK2   BANK3   BANK4   BANK5   BANK6   BANK7   BANK8   BANK9  BANK10  BANK1
      +1  BANK12  BANK13  BANK14  BANK15
  5696 ;;      Params:         8       0       0       0       0       0       0       0       0       0       0       0       
      +0       0       0       0       0
  5697 ;;      Locals:         2       0       0       0       0       0       0       0       0       0       0       0       
      +0       0       0       0       0
  5698 ;;      Temps:          2       0       0       0       0       0       0       0       0       0       0       0       
      +0       0       0       0       0
  5699 ;;      Totals:        12       0       0       0       0       0       0       0       0       0       0       0       
      +0       0       0       0       0
  5700 ;;Total ram usage:       12 bytes
  5701 ;; Hardware stack levels used:    1
  5702 ;; Hardware stack levels required when called:    4
  5703 ;; This function calls:
  5704 ;;		Nothing
  5705 ;; This function is called by:
  5706 ;;		_park_the_car
  5707 ;;		_reserve_the_lot
  5708 ;;		_exit
  5709 ;; This function uses a non-reentrant model
  5710 ;;
  5711                           
  5712                           	psect	text16
  5713  00252C                     __ptext16:
  5714                           	callstack 0
  5715  00252C                     _push_msg_queue:
  5716                           	callstack 23
  5717  00252C                     
  5718                           ;main.c: 562:     int next_tail = (tail_msg_queue + 1) % 128;
  5719  00252C  0E01               	movlw	1
  5720  00252E  0100               	movlb	0	; () banked
  5721  002530  25A6               	addwf	_tail_msg_queue& (0+255),w,b
  5722  002532  6E15               	movwf	??_push_msg_queue^0,c
  5723  002534  0E00               	movlw	0
  5724  002536  21A7               	addwfc	(_tail_msg_queue+1)& (0+255),w,b
  5725  002538  6E16               	movwf	(??_push_msg_queue+1)^0,c
  5726  00253A  0E7F               	movlw	127
  5727  00253C  1415               	andwf	??_push_msg_queue^0,w,c
  5728  00253E  6E17               	movwf	push_msg_queue@next_tail^0,c
  5729  002540  6A18               	clrf	(push_msg_queue@next_tail+1)^0,c
  5730                           
  5731                           ;main.c: 563:     if (next_tail == head_msg_queue) {
  5732  002542  51A8               	movf	_head_msg_queue& (0+255),w,b
  5733  002544  1817               	xorwf	push_msg_queue@next_tail^0,w,c
  5734  002546  E107               	bnz	u3031
  5735  002548  51A9               	movf	(_head_msg_queue+1)& (0+255),w,b
  5736  00254A  1818               	xorwf	(push_msg_queue@next_tail+1)^0,w,c
  5737  00254C  A4D8               	btfss	status,2,c
  5738  00254E  EFAB  F012         	goto	u3031
  5739  002552  EFAD  F012         	goto	u3030
  5740  002556                     u3031:
  5741  002556  EFAF  F012         	goto	l3553
  5742  00255A                     u3030:
  5743  00255A  EFCF  F012         	goto	l317
  5744  00255E                     l3553:
  5745                           
  5746                           ; BSR set to: 0
  5747                           ;main.c: 566:     msg_queue[tail_msg_queue] = msg;
  5748  00255E  EE20  F00D         	lfsr	2,push_msg_queue@msg
  5749  002562  C0A6  F015         	movff	_tail_msg_queue,??_push_msg_queue
  5750  002566  C0A7  F016         	movff	_tail_msg_queue+1,??_push_msg_queue+1
  5751  00256A  90D8               	bcf	status,0,c
  5752  00256C  3615               	rlcf	??_push_msg_queue^0,f,c
  5753  00256E  3616               	rlcf	(??_push_msg_queue+1)^0,f,c
  5754  002570  90D8               	bcf	status,0,c
  5755  002572  3615               	rlcf	??_push_msg_queue^0,f,c
  5756  002574  3616               	rlcf	(??_push_msg_queue+1)^0,f,c
  5757  002576  90D8               	bcf	status,0,c
  5758  002578  3615               	rlcf	??_push_msg_queue^0,f,c
  5759  00257A  3616               	rlcf	(??_push_msg_queue+1)^0,f,c
  5760  00257C  0E80               	movlw	low _msg_queue
  5761  00257E  2415               	addwf	??_push_msg_queue^0,w,c
  5762  002580  6EE1               	movwf	fsr1l,c
  5763  002582  0E03               	movlw	high _msg_queue
  5764  002584  2016               	addwfc	(??_push_msg_queue+1)^0,w,c
  5765  002586  6EE2               	movwf	fsr1h,c
  5766  002588  0E07               	movlw	7
  5767  00258A                     u3041:
  5768  00258A  CFDB FFE3          	movff	plusw2,plusw1
  5769  00258E  06E8               	decf	wreg,f,c
  5770  002590  E2FC               	bc	u3041
  5771  002592                     
  5772                           ; BSR set to: 0
  5773                           ;main.c: 567:     tail_msg_queue = next_tail;
  5774  002592  C017  F0A6         	movff	push_msg_queue@next_tail,_tail_msg_queue
  5775  002596  C018  F0A7         	movff	push_msg_queue@next_tail+1,_tail_msg_queue+1
  5776  00259A                     
  5777                           ; BSR set to: 0
  5778                           ;main.c: 568:     msg_queue_size++;
  5779  00259A  4BA4               	infsnz	_msg_queue_size& (0+255),f,b
  5780  00259C  2BA5               	incf	(_msg_queue_size+1)& (0+255),f,b
  5781  00259E                     l317:
  5782                           
  5783                           ; BSR set to: 0
  5784  00259E  0012               	return		;funcret
  5785  0025A0                     __end_of_push_msg_queue:
  5786                           	callstack 0
  5787                           
  5788 ;; *************** function _pop_car_queue *****************
  5789 ;; Defined at:
  5790 ;;		line 551 in file "main.c"
  5791 ;; Parameters:    Size  Location     Type
  5792 ;;		None
  5793 ;; Auto vars:     Size  Location     Type
  5794 ;;  licence         2   16[COMRAM] int 
  5795 ;; Return value:  Size  Location     Type
  5796 ;;                  2   12[COMRAM] int 
  5797 ;; Registers used:
  5798 ;;		wreg, fsr2l, fsr2h, status,2, status,0
  5799 ;; Tracked objects:
  5800 ;;		On entry : 0/0
  5801 ;;		On exit  : 0/0
  5802 ;;		Unchanged: 0/0
  5803 ;; Data sizes:     COMRAM   BANK0   BANK1   BANK2   BANK3   BANK4   BANK5   BANK6   BANK7   BANK8   BANK9  BANK10  BANK1
      +1  BANK12  BANK13  BANK14  BANK15
  5804 ;;      Params:         2       0       0       0       0       0       0       0       0       0       0       0       
      +0       0       0       0       0
  5805 ;;      Locals:         2       0       0       0       0       0       0       0       0       0       0       0       
      +0       0       0       0       0
  5806 ;;      Temps:          2       0       0       0       0       0       0       0       0       0       0       0       
      +0       0       0       0       0
  5807 ;;      Totals:         6       0       0       0       0       0       0       0       0       0       0       0       
      +0       0       0       0       0
  5808 ;;Total ram usage:        6 bytes
  5809 ;; Hardware stack levels used:    1
  5810 ;; Hardware stack levels required when called:    4
  5811 ;; This function calls:
  5812 ;;		Nothing
  5813 ;; This function is called by:
  5814 ;;		_exit
  5815 ;; This function uses a non-reentrant model
  5816 ;;
  5817                           
  5818                           	psect	text17
  5819  0026E2                     __ptext17:
  5820                           	callstack 0
  5821  0026E2                     _pop_car_queue:
  5822                           	callstack 23
  5823  0026E2                     
  5824                           ;main.c: 552:     if (car_queue_size == 0) {
  5825  0026E2  0100               	movlb	0	; () banked
  5826  0026E4  51AA               	movf	_car_queue_size& (0+255),w,b
  5827  0026E6  11AB               	iorwf	(_car_queue_size+1)& (0+255),w,b
  5828  0026E8  A4D8               	btfss	status,2,c
  5829  0026EA  EF79  F013         	goto	u3021
  5830  0026EE  EF7B  F013         	goto	u3020
  5831  0026F2                     u3021:
  5832  0026F2  EF7F  F013         	goto	l3539
  5833  0026F6                     u3020:
  5834  0026F6                     
  5835                           ; BSR set to: 0
  5836                           ;main.c: 553:         return -1;
  5837  0026F6  680D               	setf	?_pop_car_queue^0,c
  5838  0026F8  680E               	setf	(?_pop_car_queue+1)^0,c
  5839  0026FA  EF9D  F013         	goto	l313
  5840  0026FE                     l3539:
  5841                           
  5842                           ; BSR set to: 0
  5843                           ;main.c: 555:     int licence = wait_queue[head_car_queue];
  5844  0026FE  90D8               	bcf	status,0,c
  5845  002700  35AE               	rlcf	_head_car_queue& (0+255),w,b
  5846  002702  6ED9               	movwf	fsr2l,c
  5847  002704  35AF               	rlcf	(_head_car_queue+1)& (0+255),w,b
  5848  002706  6EDA               	movwf	fsr2h,c
  5849  002708  0E80               	movlw	low _wait_queue
  5850  00270A  26D9               	addwf	fsr2l,f,c
  5851  00270C  0E02               	movlw	high _wait_queue
  5852  00270E  22DA               	addwfc	fsr2h,f,c
  5853  002710  CFDE F011          	movff	postinc2,pop_car_queue@licence
  5854  002714  CFDD F012          	movff	postdec2,pop_car_queue@licence+1
  5855  002718                     
  5856                           ; BSR set to: 0
  5857                           ;main.c: 556:     head_car_queue = (head_car_queue + 1) % 16;
  5858  002718  0E01               	movlw	1
  5859  00271A  25AE               	addwf	_head_car_queue& (0+255),w,b
  5860  00271C  6E0F               	movwf	??_pop_car_queue^0,c
  5861  00271E  0E00               	movlw	0
  5862  002720  21AF               	addwfc	(_head_car_queue+1)& (0+255),w,b
  5863  002722  6E10               	movwf	(??_pop_car_queue+1)^0,c
  5864  002724  0E0F               	movlw	15
  5865  002726  140F               	andwf	??_pop_car_queue^0,w,c
  5866  002728  6FAE               	movwf	_head_car_queue& (0+255),b
  5867  00272A  6BAF               	clrf	(_head_car_queue+1)& (0+255),b
  5868  00272C                     
  5869                           ; BSR set to: 0
  5870                           ;main.c: 557:     car_queue_size--;
  5871  00272C  07AA               	decf	_car_queue_size& (0+255),f,b
  5872  00272E  A0D8               	btfss	status,0,c
  5873  002730  07AB               	decf	(_car_queue_size+1)& (0+255),f,b
  5874  002732                     
  5875                           ; BSR set to: 0
  5876                           ;main.c: 558:     return licence;
  5877  002732  C011  F00D         	movff	pop_car_queue@licence,?_pop_car_queue
  5878  002736  C012  F00E         	movff	pop_car_queue@licence+1,?_pop_car_queue+1
  5879  00273A                     l313:
  5880                           
  5881                           ; BSR set to: 0
  5882  00273A  0012               	return		;funcret
  5883  00273C                     __end_of_pop_car_queue:
  5884                           	callstack 0
  5885                           
  5886 ;; *************** function _level_to_index *****************
  5887 ;; Defined at:
  5888 ;;		line 889 in file "main.c"
  5889 ;; Parameters:    Size  Location     Type
  5890 ;;  level_char      1    wreg     unsigned char 
  5891 ;; Auto vars:     Size  Location     Type
  5892 ;;  level_char      1   16[COMRAM] unsigned char 
  5893 ;; Return value:  Size  Location     Type
  5894 ;;                  2   12[COMRAM] int 
  5895 ;; Registers used:
  5896 ;;		wreg, status,2, status,0
  5897 ;; Tracked objects:
  5898 ;;		On entry : 0/0
  5899 ;;		On exit  : 0/0
  5900 ;;		Unchanged: 0/0
  5901 ;; Data sizes:     COMRAM   BANK0   BANK1   BANK2   BANK3   BANK4   BANK5   BANK6   BANK7   BANK8   BANK9  BANK10  BANK1
      +1  BANK12  BANK13  BANK14  BANK15
  5902 ;;      Params:         2       0       0       0       0       0       0       0       0       0       0       0       
      +0       0       0       0       0
  5903 ;;      Locals:         1       0       0       0       0       0       0       0       0       0       0       0       
      +0       0       0       0       0
  5904 ;;      Temps:          2       0       0       0       0       0       0       0       0       0       0       0       
      +0       0       0       0       0
  5905 ;;      Totals:         5       0       0       0       0       0       0       0       0       0       0       0       
      +0       0       0       0       0
  5906 ;;Total ram usage:        5 bytes
  5907 ;; Hardware stack levels used:    1
  5908 ;; Hardware stack levels required when called:    4
  5909 ;; This function calls:
  5910 ;;		Nothing
  5911 ;; This function is called by:
  5912 ;;		_park_the_car
  5913 ;;		_exit
  5914 ;;		_main
  5915 ;; This function uses a non-reentrant model
  5916 ;;
  5917                           
  5918                           	psect	text18
  5919  0025A0                     __ptext18:
  5920                           	callstack 0
  5921  0025A0                     _level_to_index:
  5922                           	callstack 23
  5923                           
  5924                           ; BSR set to: 0
  5925                           ;incstack = 0
  5926                           ;level_to_index@level_char stored from wreg
  5927  0025A0  6E11               	movwf	level_to_index@level_char^0,c
  5928  0025A2                     
  5929                           ;main.c: 890:     switch (level_char) {
  5930  0025A2  EFEB  F012         	goto	l3579
  5931  0025A6                     l3561:
  5932                           
  5933                           ;main.c: 892:             return 0;
  5934  0025A6  0E00               	movlw	0
  5935  0025A8  6E0E               	movwf	(?_level_to_index+1)^0,c
  5936  0025AA  0E00               	movlw	0
  5937  0025AC  6E0D               	movwf	?_level_to_index^0,c
  5938  0025AE  EF08  F013         	goto	l401
  5939  0025B2                     l3565:
  5940                           
  5941                           ;main.c: 894:             return 1;
  5942  0025B2  0E00               	movlw	0
  5943  0025B4  6E0E               	movwf	(?_level_to_index+1)^0,c
  5944  0025B6  0E01               	movlw	1
  5945  0025B8  6E0D               	movwf	?_level_to_index^0,c
  5946  0025BA  EF08  F013         	goto	l401
  5947  0025BE                     l3569:
  5948                           
  5949                           ;main.c: 896:             return 2;
  5950  0025BE  0E00               	movlw	0
  5951  0025C0  6E0E               	movwf	(?_level_to_index+1)^0,c
  5952  0025C2  0E02               	movlw	2
  5953  0025C4  6E0D               	movwf	?_level_to_index^0,c
  5954  0025C6  EF08  F013         	goto	l401
  5955  0025CA                     l3573:
  5956                           
  5957                           ;main.c: 898:             return 3;
  5958  0025CA  0E00               	movlw	0
  5959  0025CC  6E0E               	movwf	(?_level_to_index+1)^0,c
  5960  0025CE  0E03               	movlw	3
  5961  0025D0  6E0D               	movwf	?_level_to_index^0,c
  5962  0025D2  EF08  F013         	goto	l401
  5963  0025D6                     l3579:
  5964  0025D6  5011               	movf	level_to_index@level_char^0,w,c
  5965  0025D8  6E0F               	movwf	??_level_to_index^0,c
  5966  0025DA  6A10               	clrf	(??_level_to_index+1)^0,c
  5967                           
  5968                           ; Switch on 2 bytes has been partitioned into a top level switch of size 1, and 1 sub-sw
      +                          itches
  5969                           ; Switch size 1, requested type "simple"
  5970                           ; Number of cases is 1, Range of values is 0 to 0
  5971                           ; switch strategies available:
  5972                           ; Name         Instructions Cycles
  5973                           ; simple_byte            4     3 (average)
  5974                           ;	Chosen strategy is simple_byte
  5975  0025DC  5010               	movf	(??_level_to_index+1)^0,w,c
  5976  0025DE  0A00               	xorlw	0	; case 0
  5977  0025E0  B4D8               	btfsc	status,2,c
  5978  0025E2  EFF5  F012         	goto	l4691
  5979  0025E6  EF08  F013         	goto	l401
  5980  0025EA                     l4691:
  5981                           
  5982                           ; Switch size 1, requested type "simple"
  5983                           ; Number of cases is 4, Range of values is 65 to 68
  5984                           ; switch strategies available:
  5985                           ; Name         Instructions Cycles
  5986                           ; simple_byte           13     7 (average)
  5987                           ;	Chosen strategy is simple_byte
  5988  0025EA  500F               	movf	??_level_to_index^0,w,c
  5989  0025EC  0A41               	xorlw	65	; case 65
  5990  0025EE  B4D8               	btfsc	status,2,c
  5991  0025F0  EFD3  F012         	goto	l3561
  5992  0025F4  0A03               	xorlw	3	; case 66
  5993  0025F6  B4D8               	btfsc	status,2,c
  5994  0025F8  EFD9  F012         	goto	l3565
  5995  0025FC  0A01               	xorlw	1	; case 67
  5996  0025FE  B4D8               	btfsc	status,2,c
  5997  002600  EFDF  F012         	goto	l3569
  5998  002604  0A07               	xorlw	7	; case 68
  5999  002606  B4D8               	btfsc	status,2,c
  6000  002608  EFE5  F012         	goto	l3573
  6001  00260C  EF08  F013         	goto	l401
  6002  002610                     l401:
  6003  002610  0012               	return		;funcret
  6004  002612                     __end_of_level_to_index:
  6005                           	callstack 0
  6006                           
  6007 ;; *************** function _calculateFee *****************
  6008 ;; Defined at:
  6009 ;;		line 743 in file "main.c"
  6010 ;; Parameters:    Size  Location     Type
  6011 ;;  entranceTime    2   20[COMRAM] int 
  6012 ;; Auto vars:     Size  Location     Type
  6013 ;;  difference      2   22[COMRAM] int 
  6014 ;; Return value:  Size  Location     Type
  6015 ;;                  2   20[COMRAM] int 
  6016 ;; Registers used:
  6017 ;;		wreg, status,2, status,0, cstack
  6018 ;; Tracked objects:
  6019 ;;		On entry : 0/0
  6020 ;;		On exit  : 0/0
  6021 ;;		Unchanged: 0/0
  6022 ;; Data sizes:     COMRAM   BANK0   BANK1   BANK2   BANK3   BANK4   BANK5   BANK6   BANK7   BANK8   BANK9  BANK10  BANK1
      +1  BANK12  BANK13  BANK14  BANK15
  6023 ;;      Params:         2       0       0       0       0       0       0       0       0       0       0       0       
      +0       0       0       0       0
  6024 ;;      Locals:         2       0       0       0       0       0       0       0       0       0       0       0       
      +0       0       0       0       0
  6025 ;;      Temps:          0       0       0       0       0       0       0       0       0       0       0       0       
      +0       0       0       0       0
  6026 ;;      Totals:         4       0       0       0       0       0       0       0       0       0       0       0       
      +0       0       0       0       0
  6027 ;;Total ram usage:        4 bytes
  6028 ;; Hardware stack levels used:    1
  6029 ;; Hardware stack levels required when called:    5
  6030 ;; This function calls:
  6031 ;;		___awdiv
  6032 ;; This function is called by:
  6033 ;;		_exit
  6034 ;; This function uses a non-reentrant model
  6035 ;;
  6036                           
  6037                           	psect	text19
  6038  0028D0                     __ptext19:
  6039                           	callstack 0
  6040  0028D0                     _calculateFee:
  6041                           	callstack 22
  6042  0028D0                     
  6043                           ;main.c: 745:     int difference = (general_counter - entranceTime)/50;
  6044  0028D0  5015               	movf	calculateFee@entranceTime^0,w,c
  6045  0028D2  5C49               	subwf	_general_counter^0,w,c
  6046  0028D4  6E0D               	movwf	___awdiv@dividend^0,c
  6047  0028D6  5016               	movf	(calculateFee@entranceTime+1)^0,w,c
  6048  0028D8  584A               	subwfb	(_general_counter+1)^0,w,c
  6049  0028DA  6E0E               	movwf	(___awdiv@dividend+1)^0,c
  6050  0028DC  0E00               	movlw	0
  6051  0028DE  6E10               	movwf	(___awdiv@divisor+1)^0,c
  6052  0028E0  0E32               	movlw	50
  6053  0028E2  6E0F               	movwf	___awdiv@divisor^0,c
  6054  0028E4  ECBD  F00F         	call	___awdiv	;wreg free
  6055  0028E8  C00D  F017         	movff	?___awdiv,calculateFee@difference
  6056  0028EC  C00E  F018         	movff	?___awdiv+1,calculateFee@difference+1
  6057  0028F0                     
  6058                           ;main.c: 746:     return difference + 1;
  6059  0028F0  0E01               	movlw	1
  6060  0028F2  2417               	addwf	calculateFee@difference^0,w,c
  6061  0028F4  6E15               	movwf	?_calculateFee^0,c
  6062  0028F6  0E00               	movlw	0
  6063  0028F8  2018               	addwfc	(calculateFee@difference+1)^0,w,c
  6064  0028FA  6E16               	movwf	(?_calculateFee+1)^0,c
  6065  0028FC  0012               	return		;funcret
  6066  0028FE                     __end_of_calculateFee:
  6067                           	callstack 0
  6068                           
  6069 ;; *************** function _packet_task *****************
  6070 ;; Defined at:
  6071 ;;		line 345 in file "main.c"
  6072 ;; Parameters:    Size  Location     Type
  6073 ;;		None
  6074 ;; Auto vars:     Size  Location     Type
  6075 ;;  v               1   14[COMRAM] unsigned char 
  6076 ;; Return value:  Size  Location     Type
  6077 ;;                  1    wreg      void 
  6078 ;; Registers used:
  6079 ;;		wreg, fsr1l, fsr1h, fsr2l, fsr2h, status,2, status,0, cstack
  6080 ;; Tracked objects:
  6081 ;;		On entry : 0/0
  6082 ;;		On exit  : 0/0
  6083 ;;		Unchanged: 0/0
  6084 ;; Data sizes:     COMRAM   BANK0   BANK1   BANK2   BANK3   BANK4   BANK5   BANK6   BANK7   BANK8   BANK9  BANK10  BANK1
      +1  BANK12  BANK13  BANK14  BANK15
  6085 ;;      Params:         0       0       0       0       0       0       0       0       0       0       0       0       
      +0       0       0       0       0
  6086 ;;      Locals:         1       0       0       0       0       0       0       0       0       0       0       0       
      +0       0       0       0       0
  6087 ;;      Temps:          2       0       0       0       0       0       0       0       0       0       0       0       
      +0       0       0       0       0
  6088 ;;      Totals:         3       0       0       0       0       0       0       0       0       0       0       0       
      +0       0       0       0       0
  6089 ;;Total ram usage:        3 bytes
  6090 ;; Hardware stack levels used:    1
  6091 ;; Hardware stack levels required when called:    6
  6092 ;; This function calls:
  6093 ;;		_buf_isempty
  6094 ;;		_buf_pop
  6095 ;;		_disable_rxtx
  6096 ;;		_enable_rxtx
  6097 ;; This function is called by:
  6098 ;;		_main
  6099 ;; This function uses a non-reentrant model
  6100 ;;
  6101                           
  6102                           	psect	text20
  6103  001C86                     __ptext20:
  6104                           	callstack 0
  6105  001C86                     _packet_task:
  6106                           	callstack 24
  6107  001C86                     
  6108                           ;main.c: 346:     disable_rxtx();
  6109  001C86  ECF0  F014         	call	_disable_rxtx	;wreg free
  6110  001C8A                     
  6111                           ;main.c: 348:     if (!buf_isempty(INBUF)) {
  6112  001C8A  0E00               	movlw	0
  6113  001C8C  EC41  F013         	call	_buf_isempty
  6114  001C90  0900               	iorlw	0
  6115  001C92  A4D8               	btfss	status,2,c
  6116  001C94  EF4E  F00E         	goto	u3801
  6117  001C98  EF50  F00E         	goto	u3800
  6118  001C9C                     u3801:
  6119  001C9C  EFCA  F00E         	goto	l4223
  6120  001CA0                     u3800:
  6121  001CA0  EFB0  F00E         	goto	l4221
  6122  001CA4                     l4191:
  6123                           
  6124                           ; BSR set to: 0
  6125                           ;main.c: 352:             v = buf_pop(INBUF);
  6126  001CA4  0E00               	movlw	0
  6127  001CA6  EC51  F00F         	call	_buf_pop
  6128  001CAA  6E0F               	movwf	packet_task@v^0,c
  6129  001CAC                     
  6130                           ;main.c: 353:             if (v == 0x24) {
  6131  001CAC  0E24               	movlw	36
  6132  001CAE  180F               	xorwf	packet_task@v^0,w,c
  6133  001CB0  A4D8               	btfss	status,2,c
  6134  001CB2  EF5D  F00E         	goto	u3811
  6135  001CB6  EF5F  F00E         	goto	u3810
  6136  001CBA                     u3811:
  6137  001CBA  EFCA  F00E         	goto	l4223
  6138  001CBE                     u3810:
  6139  001CBE                     
  6140                           ;main.c: 355:                 pkt_state = PKT_GET_BODY;
  6141  001CBE  0E01               	movlw	1
  6142  001CC0  0100               	movlb	0	; () banked
  6143  001CC2  6FCC               	movwf	_pkt_state& (0+255),b
  6144                           
  6145                           ;main.c: 356:                 pkt_bodysize = 0;
  6146  001CC4  0E00               	movlw	0
  6147  001CC6  6E4C               	movwf	_pkt_bodysize^0,c
  6148  001CC8  EFCA  F00E         	goto	l4223
  6149  001CCC                     l4197:
  6150                           
  6151                           ; BSR set to: 0
  6152                           ;main.c: 360:             v = buf_pop(INBUF);
  6153  001CCC  0E00               	movlw	0
  6154  001CCE  EC51  F00F         	call	_buf_pop
  6155  001CD2  6E0F               	movwf	packet_task@v^0,c
  6156  001CD4                     
  6157                           ;main.c: 361:             if (v == 0x23) {
  6158  001CD4  0E23               	movlw	35
  6159  001CD6  180F               	xorwf	packet_task@v^0,w,c
  6160  001CD8  A4D8               	btfss	status,2,c
  6161  001CDA  EF71  F00E         	goto	u3821
  6162  001CDE  EF73  F00E         	goto	u3820
  6163  001CE2                     u3821:
  6164  001CE2  EF7A  F00E         	goto	l4203
  6165  001CE6                     u3820:
  6166  001CE6                     
  6167                           ;main.c: 363:                 pkt_state = PKT_WAIT_ACK;
  6168  001CE6  0E02               	movlw	2
  6169  001CE8  0100               	movlb	0	; () banked
  6170  001CEA  6FCC               	movwf	_pkt_state& (0+255),b
  6171                           
  6172                           ;main.c: 364:                 pkt_valid = 1;
  6173  001CEC  0E01               	movlw	1
  6174  001CEE  6E4B               	movwf	_pkt_valid^0,c
  6175                           
  6176                           ;main.c: 365:             } else if (v == 0x24 || (pkt_bodysize + 1 == 20)) {
  6177  001CF0  EFCA  F00E         	goto	l4223
  6178  001CF4                     l4203:
  6179  001CF4  0E24               	movlw	36
  6180  001CF6  180F               	xorwf	packet_task@v^0,w,c
  6181  001CF8  B4D8               	btfsc	status,2,c
  6182  001CFA  EF81  F00E         	goto	u3831
  6183  001CFE  EF83  F00E         	goto	u3830
  6184  001D02                     u3831:
  6185  001D02  EF94  F00E         	goto	l4207
  6186  001D06                     u3830:
  6187  001D06  504C               	movf	_pkt_bodysize^0,w,c
  6188  001D08  6E0D               	movwf	??_packet_task^0,c
  6189  001D0A  6A0E               	clrf	(??_packet_task+1)^0,c
  6190  001D0C  0E01               	movlw	1
  6191  001D0E  260D               	addwf	??_packet_task^0,f,c
  6192  001D10  0E00               	movlw	0
  6193  001D12  220E               	addwfc	(??_packet_task+1)^0,f,c
  6194  001D14  0E14               	movlw	20
  6195  001D16  180D               	xorwf	??_packet_task^0,w,c
  6196  001D18  100E               	iorwf	(??_packet_task+1)^0,w,c
  6197  001D1A  A4D8               	btfss	status,2,c
  6198  001D1C  EF92  F00E         	goto	u3841
  6199  001D20  EF94  F00E         	goto	u3840
  6200  001D24                     u3841:
  6201  001D24  EF98  F00E         	goto	l4209
  6202  001D28                     u3840:
  6203  001D28                     l4207:
  6204                           
  6205                           ;main.c: 367:                 pkt_bodysize = 0;
  6206  001D28  0E00               	movlw	0
  6207  001D2A  6E4C               	movwf	_pkt_bodysize^0,c
  6208                           
  6209                           ;main.c: 368:             } else
  6210  001D2C  EFCA  F00E         	goto	l4223
  6211  001D30                     l4209:
  6212                           
  6213                           ;main.c: 369:                 pkt_body[pkt_bodysize++] = v;
  6214  001D30  0E88               	movlw	low _pkt_body
  6215  001D32  244C               	addwf	_pkt_bodysize^0,w,c
  6216  001D34  6ED9               	movwf	fsr2l,c
  6217  001D36  6ADA               	clrf	fsr2h,c
  6218  001D38  0E00               	movlw	high _pkt_body
  6219  001D3A  22DA               	addwfc	fsr2h,f,c
  6220  001D3C  C00F  FFDF         	movff	packet_task@v,indf2
  6221  001D40  2A4C               	incf	_pkt_bodysize^0,f,c
  6222  001D42  EFCA  F00E         	goto	l4223
  6223  001D46                     l4213:
  6224                           
  6225                           ; BSR set to: 0
  6226                           ;main.c: 372:             if (pkt_valid == 0) {
  6227  001D46  504B               	movf	_pkt_valid^0,w,c
  6228  001D48  A4D8               	btfss	status,2,c
  6229  001D4A  EFA9  F00E         	goto	u3851
  6230  001D4E  EFAB  F00E         	goto	u3850
  6231  001D52                     u3851:
  6232  001D52  EFCA  F00E         	goto	l4223
  6233  001D56                     u3850:
  6234  001D56                     
  6235                           ; BSR set to: 0
  6236                           ;main.c: 374:                 pkt_state = PKT_WAIT_HDR;
  6237  001D56  0E00               	movlw	0
  6238  001D58  6FCC               	movwf	_pkt_state& (0+255),b
  6239  001D5A                     
  6240                           ; BSR set to: 0
  6241                           ;main.c: 375:                 pkt_id++;
  6242  001D5A  2BCB               	incf	_pkt_id& (0+255),f,b
  6243  001D5C  EFCA  F00E         	goto	l4223
  6244  001D60                     l4221:
  6245  001D60  0100               	movlb	0	; () banked
  6246  001D62  51CC               	movf	_pkt_state& (0+255),w,b
  6247  001D64  6E0D               	movwf	??_packet_task^0,c
  6248  001D66  6A0E               	clrf	(??_packet_task+1)^0,c
  6249                           
  6250                           ; Switch on 2 bytes has been partitioned into a top level switch of size 1, and 1 sub-sw
      +                          itches
  6251                           ; Switch size 1, requested type "simple"
  6252                           ; Number of cases is 1, Range of values is 0 to 0
  6253                           ; switch strategies available:
  6254                           ; Name         Instructions Cycles
  6255                           ; simple_byte            4     3 (average)
  6256                           ;	Chosen strategy is simple_byte
  6257  001D68  500E               	movf	(??_packet_task+1)^0,w,c
  6258  001D6A  0A00               	xorlw	0	; case 0
  6259  001D6C  B4D8               	btfsc	status,2,c
  6260  001D6E  EFBB  F00E         	goto	l4693
  6261  001D72  EFCA  F00E         	goto	l4223
  6262  001D76                     l4693:
  6263                           
  6264                           ; BSR set to: 0
  6265                           ; Switch size 1, requested type "simple"
  6266                           ; Number of cases is 3, Range of values is 0 to 2
  6267                           ; switch strategies available:
  6268                           ; Name         Instructions Cycles
  6269                           ; simple_byte           10     6 (average)
  6270                           ;	Chosen strategy is simple_byte
  6271  001D76  500D               	movf	??_packet_task^0,w,c
  6272  001D78  0A00               	xorlw	0	; case 0
  6273  001D7A  B4D8               	btfsc	status,2,c
  6274  001D7C  EF52  F00E         	goto	l4191
  6275  001D80  0A01               	xorlw	1	; case 1
  6276  001D82  B4D8               	btfsc	status,2,c
  6277  001D84  EF66  F00E         	goto	l4197
  6278  001D88  0A03               	xorlw	3	; case 2
  6279  001D8A  B4D8               	btfsc	status,2,c
  6280  001D8C  EFA3  F00E         	goto	l4213
  6281  001D90  EFCA  F00E         	goto	l4223
  6282  001D94                     l4223:
  6283                           
  6284                           ;main.c: 380:     enable_rxtx();
  6285  001D94  ECED  F014         	call	_enable_rxtx	;wreg free
  6286  001D98  0012               	return		;funcret
  6287  001D9A                     __end_of_packet_task:
  6288                           	callstack 0
  6289                           
  6290 ;; *************** function _output_task *****************
  6291 ;; Defined at:
  6292 ;;		line 510 in file "main.c"
  6293 ;; Parameters:    Size  Location     Type
  6294 ;;		None
  6295 ;; Auto vars:     Size  Location     Type
  6296 ;;		None
  6297 ;; Return value:  Size  Location     Type
  6298 ;;                  1    wreg      void 
  6299 ;; Registers used:
  6300 ;;		wreg, fsr1l, fsr1h, fsr2l, fsr2h, status,2, status,0, cstack
  6301 ;; Tracked objects:
  6302 ;;		On entry : 0/0
  6303 ;;		On exit  : 0/0
  6304 ;;		Unchanged: 0/0
  6305 ;; Data sizes:     COMRAM   BANK0   BANK1   BANK2   BANK3   BANK4   BANK5   BANK6   BANK7   BANK8   BANK9  BANK10  BANK1
      +1  BANK12  BANK13  BANK14  BANK15
  6306 ;;      Params:         0       0       0       0       0       0       0       0       0       0       0       0       
      +0       0       0       0       0
  6307 ;;      Locals:         0       0       0       0       0       0       0       0       0       0       0       0       
      +0       0       0       0       0
  6308 ;;      Temps:          0       0       0       0       0       0       0       0       0       0       0       0       
      +0       0       0       0       0
  6309 ;;      Totals:         0       0       0       0       0       0       0       0       0       0       0       0       
      +0       0       0       0       0
  6310 ;;Total ram usage:        0 bytes
  6311 ;; Hardware stack levels used:    1
  6312 ;; Hardware stack levels required when called:    6
  6313 ;; This function calls:
  6314 ;;		_buf_isempty
  6315 ;;		_buf_pop
  6316 ;;		_disable_rxtx
  6317 ;;		_enable_rxtx
  6318 ;; This function is called by:
  6319 ;;		_main
  6320 ;; This function uses a non-reentrant model
  6321 ;;
  6322                           
  6323                           	psect	text21
  6324  002830                     __ptext21:
  6325                           	callstack 0
  6326  002830                     _output_task:
  6327                           	callstack 24
  6328  002830                     
  6329                           ;main.c: 512:     disable_rxtx();
  6330  002830  ECF0  F014         	call	_disable_rxtx	;wreg free
  6331  002834                     
  6332                           ;main.c: 514:     if (buf_isempty(OUTBUF) == 0 && TXSTA1bits.TXEN == 0) {
  6333  002834  0E01               	movlw	1
  6334  002836  EC41  F013         	call	_buf_isempty
  6335  00283A  0900               	iorlw	0
  6336  00283C  A4D8               	btfss	status,2,c
  6337  00283E  EF23  F014         	goto	u4071
  6338  002842  EF25  F014         	goto	u4070
  6339  002846                     u4071:
  6340  002846  EF31  F014         	goto	l4383
  6341  00284A                     u4070:
  6342  00284A  BAAC               	btfsc	172,5,c	;volatile
  6343  00284C  EF2A  F014         	goto	u4081
  6344  002850  EF2C  F014         	goto	u4080
  6345  002854                     u4081:
  6346  002854  EF31  F014         	goto	l4383
  6347  002858                     u4080:
  6348  002858                     
  6349                           ;main.c: 519:         TXSTA1bits.TXEN = 1;
  6350  002858  8AAC               	bsf	172,5,c	;volatile
  6351  00285A                     
  6352                           ;main.c: 520:         TXREG1 = buf_pop(OUTBUF);
  6353  00285A  0E01               	movlw	1
  6354  00285C  EC51  F00F         	call	_buf_pop
  6355  002860  6EAD               	movwf	173,c	;volatile
  6356  002862                     l4383:
  6357                           
  6358                           ;main.c: 522:     enable_rxtx();
  6359  002862  ECED  F014         	call	_enable_rxtx	;wreg free
  6360  002866  0012               	return		;funcret
  6361  002868                     __end_of_output_task:
  6362                           	callstack 0
  6363                           
  6364 ;; *************** function _enable_rxtx *****************
  6365 ;; Defined at:
  6366 ;;		line 137 in file "main.c"
  6367 ;; Parameters:    Size  Location     Type
  6368 ;;		None
  6369 ;; Auto vars:     Size  Location     Type
  6370 ;;		None
  6371 ;; Return value:  Size  Location     Type
  6372 ;;                  1    wreg      void 
  6373 ;; Registers used:
  6374 ;;		None
  6375 ;; Tracked objects:
  6376 ;;		On entry : 0/0
  6377 ;;		On exit  : 0/0
  6378 ;;		Unchanged: 0/0
  6379 ;; Data sizes:     COMRAM   BANK0   BANK1   BANK2   BANK3   BANK4   BANK5   BANK6   BANK7   BANK8   BANK9  BANK10  BANK1
      +1  BANK12  BANK13  BANK14  BANK15
  6380 ;;      Params:         0       0       0       0       0       0       0       0       0       0       0       0       
      +0       0       0       0       0
  6381 ;;      Locals:         0       0       0       0       0       0       0       0       0       0       0       0       
      +0       0       0       0       0
  6382 ;;      Temps:          0       0       0       0       0       0       0       0       0       0       0       0       
      +0       0       0       0       0
  6383 ;;      Totals:         0       0       0       0       0       0       0       0       0       0       0       0       
      +0       0       0       0       0
  6384 ;;Total ram usage:        0 bytes
  6385 ;; Hardware stack levels used:    1
  6386 ;; Hardware stack levels required when called:    4
  6387 ;; This function calls:
  6388 ;;		Nothing
  6389 ;; This function is called by:
  6390 ;;		_packet_task
  6391 ;;		_fill_outbuffer
  6392 ;;		_output_task
  6393 ;; This function uses a non-reentrant model
  6394 ;;
  6395                           
  6396                           	psect	text22
  6397  0029DA                     __ptext22:
  6398                           	callstack 0
  6399  0029DA                     _enable_rxtx:
  6400                           	callstack 24
  6401  0029DA  8A9D               	bsf	157,5,c	;volatile
  6402  0029DC  889D               	bsf	157,4,c	;volatile
  6403  0029DE  0012               	return		;funcret
  6404  0029E0                     __end_of_enable_rxtx:
  6405                           	callstack 0
  6406                           
  6407 ;; *************** function _disable_rxtx *****************
  6408 ;; Defined at:
  6409 ;;		line 136 in file "main.c"
  6410 ;; Parameters:    Size  Location     Type
  6411 ;;		None
  6412 ;; Auto vars:     Size  Location     Type
  6413 ;;		None
  6414 ;; Return value:  Size  Location     Type
  6415 ;;                  1    wreg      void 
  6416 ;; Registers used:
  6417 ;;		None
  6418 ;; Tracked objects:
  6419 ;;		On entry : 0/0
  6420 ;;		On exit  : 0/0
  6421 ;;		Unchanged: 0/0
  6422 ;; Data sizes:     COMRAM   BANK0   BANK1   BANK2   BANK3   BANK4   BANK5   BANK6   BANK7   BANK8   BANK9  BANK10  BANK1
      +1  BANK12  BANK13  BANK14  BANK15
  6423 ;;      Params:         0       0       0       0       0       0       0       0       0       0       0       0       
      +0       0       0       0       0
  6424 ;;      Locals:         0       0       0       0       0       0       0       0       0       0       0       0       
      +0       0       0       0       0
  6425 ;;      Temps:          0       0       0       0       0       0       0       0       0       0       0       0       
      +0       0       0       0       0
  6426 ;;      Totals:         0       0       0       0       0       0       0       0       0       0       0       0       
      +0       0       0       0       0
  6427 ;;Total ram usage:        0 bytes
  6428 ;; Hardware stack levels used:    1
  6429 ;; Hardware stack levels required when called:    4
  6430 ;; This function calls:
  6431 ;;		Nothing
  6432 ;; This function is called by:
  6433 ;;		_packet_task
  6434 ;;		_fill_outbuffer
  6435 ;;		_output_task
  6436 ;; This function uses a non-reentrant model
  6437 ;;
  6438                           
  6439                           	psect	text23
  6440  0029E0                     __ptext23:
  6441                           	callstack 0
  6442  0029E0                     _disable_rxtx:
  6443                           	callstack 24
  6444  0029E0  9A9D               	bcf	157,5,c	;volatile
  6445  0029E2  989D               	bcf	157,4,c	;volatile
  6446  0029E4  0012               	return		;funcret
  6447  0029E6                     __end_of_disable_rxtx:
  6448                           	callstack 0
  6449                           
  6450 ;; *************** function _int_to_7segment *****************
  6451 ;; Defined at:
  6452 ;;		line 904 in file "main.c"
  6453 ;; Parameters:    Size  Location     Type
  6454 ;;  number          2   26[COMRAM] int 
  6455 ;; Auto vars:     Size  Location     Type
  6456 ;;  digits         20   20[BANK2 ] int [10]
  6457 ;;  numbers        20    0[BANK2 ] int [10]
  6458 ;;  i               2   40[BANK2 ] int 
  6459 ;; Return value:  Size  Location     Type
  6460 ;;                  1    wreg      void 
  6461 ;; Registers used:
  6462 ;;		wreg, fsr1l, fsr1h, fsr2l, fsr2h, status,2, status,0, cstack
  6463 ;; Tracked objects:
  6464 ;;		On entry : 0/0
  6465 ;;		On exit  : 0/0
  6466 ;;		Unchanged: 0/0
  6467 ;; Data sizes:     COMRAM   BANK0   BANK1   BANK2   BANK3   BANK4   BANK5   BANK6   BANK7   BANK8   BANK9  BANK10  BANK1
      +1  BANK12  BANK13  BANK14  BANK15
  6468 ;;      Params:         2       0       0       0       0       0       0       0       0       0       0       0       
      +0       0       0       0       0
  6469 ;;      Locals:         0       0       0      42       0       0       0       0       0       0       0       0       
      +0       0       0       0       0
  6470 ;;      Temps:          2       0       0       0       0       0       0       0       0       0       0       0       
      +0       0       0       0       0
  6471 ;;      Totals:         4       0       0      42       0       0       0       0       0       0       0       0       
      +0       0       0       0       0
  6472 ;;Total ram usage:       46 bytes
  6473 ;; Hardware stack levels used:    1
  6474 ;; Hardware stack levels required when called:    5
  6475 ;; This function calls:
  6476 ;;		___awdiv
  6477 ;;		___awmod
  6478 ;; This function is called by:
  6479 ;;		_main
  6480 ;; This function uses a non-reentrant model
  6481 ;;
  6482                           
  6483                           	psect	text24
  6484  001D9A                     __ptext24:
  6485                           	callstack 0
  6486  001D9A                     _int_to_7segment:
  6487                           	callstack 25
  6488  001D9A                     
  6489                           ;main.c: 906:  int numbers[10] = {0x3f,0x06,0x5b,0x4f,0x66,0x6d,0x7d,0x07,0x7f,0x6f};
  6490  001D9A  EE20  F0CE         	lfsr	2,int_to_7segment@F5104
  6491  001D9E  EE12  F0A0         	lfsr	1,int_to_7segment@numbers
  6492  001DA2  0E13               	movlw	19
  6493  001DA4                     u4091:
  6494  001DA4  CFDB FFE3          	movff	plusw2,plusw1
  6495  001DA8  06E8               	decf	wreg,f,c
  6496  001DAA  E2FC               	bc	u4091
  6497  001DAC                     
  6498                           ;main.c: 908:     int digits[10] = {0}, i = 0;
  6499  001DAC  EE22  F0B4         	lfsr	2,int_to_7segment@digits
  6500  001DB0  0E13               	movlw	19
  6501  001DB2                     u4101:
  6502  001DB2  6ADE               	clrf	postinc2,c
  6503  001DB4  06E8               	decf	wreg,f,c
  6504  001DB6  E2FD               	bc	u4101
  6505  001DB8  0E00               	movlw	0
  6506  001DBA  0102               	movlb	2	; () banked
  6507  001DBC  6FC9               	movwf	(int_to_7segment@i+1)& (0+255),b
  6508  001DBE  0E00               	movlw	0
  6509  001DC0  6FC8               	movwf	int_to_7segment@i& (0+255),b
  6510                           
  6511                           ;main.c: 909:     while (number > 0) {
  6512  001DC2  EF0B  F00F         	goto	l4405
  6513  001DC6                     l4399:
  6514                           
  6515                           ;main.c: 910:         digits[i++] = number % 10;
  6516  001DC6  C01B  F015         	movff	int_to_7segment@number,___awmod@dividend
  6517  001DCA  C01C  F016         	movff	int_to_7segment@number+1,___awmod@dividend+1
  6518  001DCE  0E00               	movlw	0
  6519  001DD0  6E18               	movwf	(___awmod@divisor+1)^0,c
  6520  001DD2  0E0A               	movlw	10
  6521  001DD4  6E17               	movwf	___awmod@divisor^0,c
  6522  001DD6  EC77  F010         	call	___awmod	;wreg free
  6523  001DDA  90D8               	bcf	status,0,c
  6524  001DDC  0102               	movlb	2	; () banked
  6525  001DDE  35C8               	rlcf	int_to_7segment@i& (0+255),w,b
  6526  001DE0  6ED9               	movwf	fsr2l,c
  6527  001DE2  35C9               	rlcf	(int_to_7segment@i+1)& (0+255),w,b
  6528  001DE4  6EDA               	movwf	fsr2h,c
  6529  001DE6  0EB4               	movlw	low int_to_7segment@digits
  6530  001DE8  26D9               	addwf	fsr2l,f,c
  6531  001DEA  0E02               	movlw	high int_to_7segment@digits
  6532  001DEC  22DA               	addwfc	fsr2h,f,c
  6533  001DEE  C015  FFDE         	movff	?___awmod,postinc2
  6534  001DF2  C016  FFDD         	movff	?___awmod+1,postdec2
  6535  001DF6                     
  6536                           ; BSR set to: 2
  6537  001DF6  4BC8               	infsnz	int_to_7segment@i& (0+255),f,b
  6538  001DF8  2BC9               	incf	(int_to_7segment@i+1)& (0+255),f,b
  6539  001DFA                     
  6540                           ; BSR set to: 2
  6541                           ;main.c: 911:         number /= 10;
  6542  001DFA  C01B  F00D         	movff	int_to_7segment@number,___awdiv@dividend
  6543  001DFE  C01C  F00E         	movff	int_to_7segment@number+1,___awdiv@dividend+1
  6544  001E02  0E00               	movlw	0
  6545  001E04  6E10               	movwf	(___awdiv@divisor+1)^0,c
  6546  001E06  0E0A               	movlw	10
  6547  001E08  6E0F               	movwf	___awdiv@divisor^0,c
  6548  001E0A  ECBD  F00F         	call	___awdiv	;wreg free
  6549  001E0E  C00D  F01B         	movff	?___awdiv,int_to_7segment@number
  6550  001E12  C00E  F01C         	movff	?___awdiv+1,int_to_7segment@number+1
  6551  001E16                     l4405:
  6552                           
  6553                           ;main.c: 909:     while (number > 0) {
  6554  001E16  BE1C               	btfsc	(int_to_7segment@number+1)^0,7,c
  6555  001E18  EF18  F00F         	goto	u4110
  6556  001E1C  501C               	movf	(int_to_7segment@number+1)^0,w,c
  6557  001E1E  E106               	bnz	u4111
  6558  001E20  041B               	decf	int_to_7segment@number^0,w,c
  6559  001E22  B0D8               	btfsc	status,0,c
  6560  001E24  EF16  F00F         	goto	u4111
  6561  001E28  EF18  F00F         	goto	u4110
  6562  001E2C                     u4111:
  6563  001E2C  EFE3  F00E         	goto	l4399
  6564  001E30                     u4110:
  6565  001E30                     
  6566                           ;main.c: 913:     for (i = 0; i < 4; ++i)
  6567  001E30  0E00               	movlw	0
  6568  001E32  0102               	movlb	2	; () banked
  6569  001E34  6FC9               	movwf	(int_to_7segment@i+1)& (0+255),b
  6570  001E36  0E00               	movlw	0
  6571  001E38  6FC8               	movwf	int_to_7segment@i& (0+255),b
  6572  001E3A                     l4413:
  6573                           
  6574                           ; BSR set to: 2
  6575                           ;main.c: 914:     {;main.c: 915:      display_digits[i] = numbers[digits[i]];
  6576  001E3A  90D8               	bcf	status,0,c
  6577  001E3C  35C8               	rlcf	int_to_7segment@i& (0+255),w,b
  6578  001E3E  6ED9               	movwf	fsr2l,c
  6579  001E40  35C9               	rlcf	(int_to_7segment@i+1)& (0+255),w,b
  6580  001E42  6EDA               	movwf	fsr2h,c
  6581  001E44  0EB4               	movlw	low int_to_7segment@digits
  6582  001E46  26D9               	addwf	fsr2l,f,c
  6583  001E48  0E02               	movlw	high int_to_7segment@digits
  6584  001E4A  22DA               	addwfc	fsr2h,f,c
  6585  001E4C  CFDE F01D          	movff	postinc2,??_int_to_7segment
  6586  001E50  CFDD F01E          	movff	postdec2,??_int_to_7segment+1
  6587  001E54  90D8               	bcf	status,0,c
  6588  001E56  361D               	rlcf	??_int_to_7segment^0,f,c
  6589  001E58  361E               	rlcf	(??_int_to_7segment+1)^0,f,c
  6590  001E5A  0EA0               	movlw	low int_to_7segment@numbers
  6591  001E5C  241D               	addwf	??_int_to_7segment^0,w,c
  6592  001E5E  6ED9               	movwf	fsr2l,c
  6593  001E60  0E02               	movlw	high int_to_7segment@numbers
  6594  001E62  201E               	addwfc	(??_int_to_7segment+1)^0,w,c
  6595  001E64  6EDA               	movwf	fsr2h,c
  6596  001E66  90D8               	bcf	status,0,c
  6597  001E68  35C8               	rlcf	int_to_7segment@i& (0+255),w,b
  6598  001E6A  6EE1               	movwf	fsr1l,c
  6599  001E6C  35C9               	rlcf	(int_to_7segment@i+1)& (0+255),w,b
  6600  001E6E  6EE2               	movwf	fsr1h,c
  6601  001E70  0EF2               	movlw	low _display_digits
  6602  001E72  26E1               	addwf	fsr1l,f,c
  6603  001E74  0E00               	movlw	high _display_digits
  6604  001E76  22E2               	addwfc	fsr1h,f,c
  6605  001E78  CFDE FFE6          	movff	postinc2,postinc1
  6606  001E7C  CFDD FFE5          	movff	postdec2,postdec1
  6607  001E80                     
  6608                           ; BSR set to: 2
  6609                           ;main.c: 916:     }
  6610  001E80  4BC8               	infsnz	int_to_7segment@i& (0+255),f,b
  6611  001E82  2BC9               	incf	(int_to_7segment@i+1)& (0+255),f,b
  6612  001E84                     
  6613                           ; BSR set to: 2
  6614  001E84  BFC9               	btfsc	(int_to_7segment@i+1)& (0+255),7,b
  6615  001E86  EF4E  F00F         	goto	u4121
  6616  001E8A  51C9               	movf	(int_to_7segment@i+1)& (0+255),w,b
  6617  001E8C  E109               	bnz	u4120
  6618  001E8E  0E04               	movlw	4
  6619  001E90  5DC8               	subwf	int_to_7segment@i& (0+255),w,b
  6620  001E92  A0D8               	btfss	status,0,c
  6621  001E94  EF4E  F00F         	goto	u4121
  6622  001E98  EF50  F00F         	goto	u4120
  6623  001E9C                     u4121:
  6624  001E9C  EF1D  F00F         	goto	l4413
  6625  001EA0                     u4120:
  6626  001EA0                     
  6627                           ; BSR set to: 2
  6628  001EA0  0012               	return		;funcret
  6629  001EA2                     __end_of_int_to_7segment:
  6630                           	callstack 0
  6631                           
  6632 ;; *************** function ___awmod *****************
  6633 ;; Defined at:
  6634 ;;		line 7 in file "C:\Program Files\Microchip\xc8\v2.30\pic\sources\c99\common\awmod.c"
  6635 ;; Parameters:    Size  Location     Type
  6636 ;;  dividend        2   20[COMRAM] int 
  6637 ;;  divisor         2   22[COMRAM] int 
  6638 ;; Auto vars:     Size  Location     Type
  6639 ;;  sign            1   25[COMRAM] unsigned char 
  6640 ;;  counter         1   24[COMRAM] unsigned char 
  6641 ;; Return value:  Size  Location     Type
  6642 ;;                  2   20[COMRAM] int 
  6643 ;; Registers used:
  6644 ;;		wreg, status,2, status,0
  6645 ;; Tracked objects:
  6646 ;;		On entry : 0/0
  6647 ;;		On exit  : 0/0
  6648 ;;		Unchanged: 0/0
  6649 ;; Data sizes:     COMRAM   BANK0   BANK1   BANK2   BANK3   BANK4   BANK5   BANK6   BANK7   BANK8   BANK9  BANK10  BANK1
      +1  BANK12  BANK13  BANK14  BANK15
  6650 ;;      Params:         4       0       0       0       0       0       0       0       0       0       0       0       
      +0       0       0       0       0
  6651 ;;      Locals:         2       0       0       0       0       0       0       0       0       0       0       0       
      +0       0       0       0       0
  6652 ;;      Temps:          0       0       0       0       0       0       0       0       0       0       0       0       
      +0       0       0       0       0
  6653 ;;      Totals:         6       0       0       0       0       0       0       0       0       0       0       0       
      +0       0       0       0       0
  6654 ;;Total ram usage:        6 bytes
  6655 ;; Hardware stack levels used:    1
  6656 ;; Hardware stack levels required when called:    4
  6657 ;; This function calls:
  6658 ;;		Nothing
  6659 ;; This function is called by:
  6660 ;;		_send_packet
  6661 ;;		_int_to_char
  6662 ;;		_send_empty_spaces_packet
  6663 ;;		_int_to_7segment
  6664 ;; This function uses a non-reentrant model
  6665 ;;
  6666                           
  6667                           	psect	text25
  6668  0020EE                     __ptext25:
  6669                           	callstack 0
  6670  0020EE                     ___awmod:
  6671                           	callstack 24
  6672  0020EE  0E00               	movlw	0
  6673  0020F0  6E1A               	movwf	___awmod@sign^0,c
  6674  0020F2  BE16               	btfsc	(___awmod@dividend+1)^0,7,c
  6675  0020F4  EF80  F010         	goto	u3570
  6676  0020F8  EF7E  F010         	goto	u3571
  6677  0020FC                     u3571:
  6678  0020FC  EF86  F010         	goto	l4007
  6679  002100                     u3570:
  6680  002100  6C15               	negf	___awmod@dividend^0,c
  6681  002102  1E16               	comf	(___awmod@dividend+1)^0,f,c
  6682  002104  B0D8               	btfsc	status,0,c
  6683  002106  2A16               	incf	(___awmod@dividend+1)^0,f,c
  6684  002108  0E01               	movlw	1
  6685  00210A  6E1A               	movwf	___awmod@sign^0,c
  6686  00210C                     l4007:
  6687  00210C  BE18               	btfsc	(___awmod@divisor+1)^0,7,c
  6688  00210E  EF8D  F010         	goto	u3580
  6689  002112  EF8B  F010         	goto	u3581
  6690  002116                     u3581:
  6691  002116  EF91  F010         	goto	l4011
  6692  00211A                     u3580:
  6693  00211A  6C17               	negf	___awmod@divisor^0,c
  6694  00211C  1E18               	comf	(___awmod@divisor+1)^0,f,c
  6695  00211E  B0D8               	btfsc	status,0,c
  6696  002120  2A18               	incf	(___awmod@divisor+1)^0,f,c
  6697  002122                     l4011:
  6698  002122  5017               	movf	___awmod@divisor^0,w,c
  6699  002124  1018               	iorwf	(___awmod@divisor+1)^0,w,c
  6700  002126  B4D8               	btfsc	status,2,c
  6701  002128  EF98  F010         	goto	u3591
  6702  00212C  EF9A  F010         	goto	u3590
  6703  002130                     u3591:
  6704  002130  EFBE  F010         	goto	l4027
  6705  002134                     u3590:
  6706  002134  0E01               	movlw	1
  6707  002136  6E19               	movwf	___awmod@counter^0,c
  6708  002138  EFA2  F010         	goto	l4017
  6709  00213C                     l4015:
  6710  00213C  90D8               	bcf	status,0,c
  6711  00213E  3617               	rlcf	___awmod@divisor^0,f,c
  6712  002140  3618               	rlcf	(___awmod@divisor+1)^0,f,c
  6713  002142  2A19               	incf	___awmod@counter^0,f,c
  6714  002144                     l4017:
  6715  002144  AE18               	btfss	(___awmod@divisor+1)^0,7,c
  6716  002146  EFA7  F010         	goto	u3601
  6717  00214A  EFA9  F010         	goto	u3600
  6718  00214E                     u3601:
  6719  00214E  EF9E  F010         	goto	l4015
  6720  002152                     u3600:
  6721  002152                     l4019:
  6722  002152  5017               	movf	___awmod@divisor^0,w,c
  6723  002154  5C15               	subwf	___awmod@dividend^0,w,c
  6724  002156  5018               	movf	(___awmod@divisor+1)^0,w,c
  6725  002158  5816               	subwfb	(___awmod@dividend+1)^0,w,c
  6726  00215A  A0D8               	btfss	status,0,c
  6727  00215C  EFB2  F010         	goto	u3611
  6728  002160  EFB4  F010         	goto	u3610
  6729  002164                     u3611:
  6730  002164  EFB8  F010         	goto	l4023
  6731  002168                     u3610:
  6732  002168  5017               	movf	___awmod@divisor^0,w,c
  6733  00216A  5E15               	subwf	___awmod@dividend^0,f,c
  6734  00216C  5018               	movf	(___awmod@divisor+1)^0,w,c
  6735  00216E  5A16               	subwfb	(___awmod@dividend+1)^0,f,c
  6736  002170                     l4023:
  6737  002170  90D8               	bcf	status,0,c
  6738  002172  3218               	rrcf	(___awmod@divisor+1)^0,f,c
  6739  002174  3217               	rrcf	___awmod@divisor^0,f,c
  6740  002176  2E19               	decfsz	___awmod@counter^0,f,c
  6741  002178  EFA9  F010         	goto	l4019
  6742  00217C                     l4027:
  6743  00217C  501A               	movf	___awmod@sign^0,w,c
  6744  00217E  B4D8               	btfsc	status,2,c
  6745  002180  EFC4  F010         	goto	u3621
  6746  002184  EFC6  F010         	goto	u3620
  6747  002188                     u3621:
  6748  002188  EFCA  F010         	goto	l4031
  6749  00218C                     u3620:
  6750  00218C  6C15               	negf	___awmod@dividend^0,c
  6751  00218E  1E16               	comf	(___awmod@dividend+1)^0,f,c
  6752  002190  B0D8               	btfsc	status,0,c
  6753  002192  2A16               	incf	(___awmod@dividend+1)^0,f,c
  6754  002194                     l4031:
  6755  002194  C015  F015         	movff	___awmod@dividend,?___awmod
  6756  002198  C016  F016         	movff	___awmod@dividend+1,?___awmod+1
  6757  00219C  0012               	return		;funcret
  6758  00219E                     __end_of___awmod:
  6759                           	callstack 0
  6760                           
  6761 ;; *************** function ___awdiv *****************
  6762 ;; Defined at:
  6763 ;;		line 7 in file "C:\Program Files\Microchip\xc8\v2.30\pic\sources\c99\common\awdiv.c"
  6764 ;; Parameters:    Size  Location     Type
  6765 ;;  dividend        2   12[COMRAM] int 
  6766 ;;  divisor         2   14[COMRAM] int 
  6767 ;; Auto vars:     Size  Location     Type
  6768 ;;  quotient        2   18[COMRAM] int 
  6769 ;;  sign            1   17[COMRAM] unsigned char 
  6770 ;;  counter         1   16[COMRAM] unsigned char 
  6771 ;; Return value:  Size  Location     Type
  6772 ;;                  2   12[COMRAM] int 
  6773 ;; Registers used:
  6774 ;;		wreg, status,2, status,0
  6775 ;; Tracked objects:
  6776 ;;		On entry : 0/0
  6777 ;;		On exit  : 0/0
  6778 ;;		Unchanged: 0/0
  6779 ;; Data sizes:     COMRAM   BANK0   BANK1   BANK2   BANK3   BANK4   BANK5   BANK6   BANK7   BANK8   BANK9  BANK10  BANK1
      +1  BANK12  BANK13  BANK14  BANK15
  6780 ;;      Params:         4       0       0       0       0       0       0       0       0       0       0       0       
      +0       0       0       0       0
  6781 ;;      Locals:         4       0       0       0       0       0       0       0       0       0       0       0       
      +0       0       0       0       0
  6782 ;;      Temps:          0       0       0       0       0       0       0       0       0       0       0       0       
      +0       0       0       0       0
  6783 ;;      Totals:         8       0       0       0       0       0       0       0       0       0       0       0       
      +0       0       0       0       0
  6784 ;;Total ram usage:        8 bytes
  6785 ;; Hardware stack levels used:    1
  6786 ;; Hardware stack levels required when called:    4
  6787 ;; This function calls:
  6788 ;;		Nothing
  6789 ;; This function is called by:
  6790 ;;		_send_packet
  6791 ;;		_calculateFee
  6792 ;;		_int_to_char
  6793 ;;		_send_empty_spaces_packet
  6794 ;;		_int_to_7segment
  6795 ;; This function uses a non-reentrant model
  6796 ;;
  6797                           
  6798                           	psect	text26
  6799  001F7A                     __ptext26:
  6800                           	callstack 0
  6801  001F7A                     ___awdiv:
  6802                           	callstack 24
  6803  001F7A  0E00               	movlw	0
  6804  001F7C  6E12               	movwf	___awdiv@sign^0,c
  6805  001F7E  BE10               	btfsc	(___awdiv@divisor+1)^0,7,c
  6806  001F80  EFC6  F00F         	goto	u2950
  6807  001F84  EFC4  F00F         	goto	u2951
  6808  001F88                     u2951:
  6809  001F88  EFCC  F00F         	goto	l3489
  6810  001F8C                     u2950:
  6811  001F8C  6C0F               	negf	___awdiv@divisor^0,c
  6812  001F8E  1E10               	comf	(___awdiv@divisor+1)^0,f,c
  6813  001F90  B0D8               	btfsc	status,0,c
  6814  001F92  2A10               	incf	(___awdiv@divisor+1)^0,f,c
  6815  001F94  0E01               	movlw	1
  6816  001F96  6E12               	movwf	___awdiv@sign^0,c
  6817  001F98                     l3489:
  6818  001F98  BE0E               	btfsc	(___awdiv@dividend+1)^0,7,c
  6819  001F9A  EFD3  F00F         	goto	u2960
  6820  001F9E  EFD1  F00F         	goto	u2961
  6821  001FA2                     u2961:
  6822  001FA2  EFD9  F00F         	goto	l3495
  6823  001FA6                     u2960:
  6824  001FA6  6C0D               	negf	___awdiv@dividend^0,c
  6825  001FA8  1E0E               	comf	(___awdiv@dividend+1)^0,f,c
  6826  001FAA  B0D8               	btfsc	status,0,c
  6827  001FAC  2A0E               	incf	(___awdiv@dividend+1)^0,f,c
  6828  001FAE  0E01               	movlw	1
  6829  001FB0  1A12               	xorwf	___awdiv@sign^0,f,c
  6830  001FB2                     l3495:
  6831  001FB2  0E00               	movlw	0
  6832  001FB4  6E14               	movwf	(___awdiv@quotient+1)^0,c
  6833  001FB6  0E00               	movlw	0
  6834  001FB8  6E13               	movwf	___awdiv@quotient^0,c
  6835  001FBA  500F               	movf	___awdiv@divisor^0,w,c
  6836  001FBC  1010               	iorwf	(___awdiv@divisor+1)^0,w,c
  6837  001FBE  B4D8               	btfsc	status,2,c
  6838  001FC0  EFE4  F00F         	goto	u2971
  6839  001FC4  EFE6  F00F         	goto	u2970
  6840  001FC8                     u2971:
  6841  001FC8  EF0E  F010         	goto	l3517
  6842  001FCC                     u2970:
  6843  001FCC  0E01               	movlw	1
  6844  001FCE  6E11               	movwf	___awdiv@counter^0,c
  6845  001FD0  EFEE  F00F         	goto	l3503
  6846  001FD4                     l3501:
  6847  001FD4  90D8               	bcf	status,0,c
  6848  001FD6  360F               	rlcf	___awdiv@divisor^0,f,c
  6849  001FD8  3610               	rlcf	(___awdiv@divisor+1)^0,f,c
  6850  001FDA  2A11               	incf	___awdiv@counter^0,f,c
  6851  001FDC                     l3503:
  6852  001FDC  AE10               	btfss	(___awdiv@divisor+1)^0,7,c
  6853  001FDE  EFF3  F00F         	goto	u2981
  6854  001FE2  EFF5  F00F         	goto	u2980
  6855  001FE6                     u2981:
  6856  001FE6  EFEA  F00F         	goto	l3501
  6857  001FEA                     u2980:
  6858  001FEA                     l3505:
  6859  001FEA  90D8               	bcf	status,0,c
  6860  001FEC  3613               	rlcf	___awdiv@quotient^0,f,c
  6861  001FEE  3614               	rlcf	(___awdiv@quotient+1)^0,f,c
  6862  001FF0  500F               	movf	___awdiv@divisor^0,w,c
  6863  001FF2  5C0D               	subwf	___awdiv@dividend^0,w,c
  6864  001FF4  5010               	movf	(___awdiv@divisor+1)^0,w,c
  6865  001FF6  580E               	subwfb	(___awdiv@dividend+1)^0,w,c
  6866  001FF8  A0D8               	btfss	status,0,c
  6867  001FFA  EF01  F010         	goto	u2991
  6868  001FFE  EF03  F010         	goto	u2990
  6869  002002                     u2991:
  6870  002002  EF08  F010         	goto	l3513
  6871  002006                     u2990:
  6872  002006  500F               	movf	___awdiv@divisor^0,w,c
  6873  002008  5E0D               	subwf	___awdiv@dividend^0,f,c
  6874  00200A  5010               	movf	(___awdiv@divisor+1)^0,w,c
  6875  00200C  5A0E               	subwfb	(___awdiv@dividend+1)^0,f,c
  6876  00200E  8013               	bsf	___awdiv@quotient^0,0,c
  6877  002010                     l3513:
  6878  002010  90D8               	bcf	status,0,c
  6879  002012  3210               	rrcf	(___awdiv@divisor+1)^0,f,c
  6880  002014  320F               	rrcf	___awdiv@divisor^0,f,c
  6881  002016  2E11               	decfsz	___awdiv@counter^0,f,c
  6882  002018  EFF5  F00F         	goto	l3505
  6883  00201C                     l3517:
  6884  00201C  5012               	movf	___awdiv@sign^0,w,c
  6885  00201E  B4D8               	btfsc	status,2,c
  6886  002020  EF14  F010         	goto	u3001
  6887  002024  EF16  F010         	goto	u3000
  6888  002028                     u3001:
  6889  002028  EF1A  F010         	goto	l3521
  6890  00202C                     u3000:
  6891  00202C  6C13               	negf	___awdiv@quotient^0,c
  6892  00202E  1E14               	comf	(___awdiv@quotient+1)^0,f,c
  6893  002030  B0D8               	btfsc	status,0,c
  6894  002032  2A14               	incf	(___awdiv@quotient+1)^0,f,c
  6895  002034                     l3521:
  6896  002034  C013  F00D         	movff	___awdiv@quotient,?___awdiv
  6897  002038  C014  F00E         	movff	___awdiv@quotient+1,?___awdiv+1
  6898  00203C  0012               	return		;funcret
  6899  00203E                     __end_of___awdiv:
  6900                           	callstack 0
  6901                           
  6902 ;; *************** function _init_timer_and_pie *****************
  6903 ;; Defined at:
  6904 ;;		line 301 in file "main.c"
  6905 ;; Parameters:    Size  Location     Type
  6906 ;;		None
  6907 ;; Auto vars:     Size  Location     Type
  6908 ;;  portb_tmp       1    0        unsigned char 
  6909 ;; Return value:  Size  Location     Type
  6910 ;;                  1    wreg      void 
  6911 ;; Registers used:
  6912 ;;		wreg, status,2
  6913 ;; Tracked objects:
  6914 ;;		On entry : 0/0
  6915 ;;		On exit  : 0/0
  6916 ;;		Unchanged: 0/0
  6917 ;; Data sizes:     COMRAM   BANK0   BANK1   BANK2   BANK3   BANK4   BANK5   BANK6   BANK7   BANK8   BANK9  BANK10  BANK1
      +1  BANK12  BANK13  BANK14  BANK15
  6918 ;;      Params:         0       0       0       0       0       0       0       0       0       0       0       0       
      +0       0       0       0       0
  6919 ;;      Locals:         1       0       0       0       0       0       0       0       0       0       0       0       
      +0       0       0       0       0
  6920 ;;      Temps:          0       0       0       0       0       0       0       0       0       0       0       0       
      +0       0       0       0       0
  6921 ;;      Totals:         1       0       0       0       0       0       0       0       0       0       0       0       
      +0       0       0       0       0
  6922 ;;Total ram usage:        1 bytes
  6923 ;; Hardware stack levels used:    1
  6924 ;; Hardware stack levels required when called:    4
  6925 ;; This function calls:
  6926 ;;		Nothing
  6927 ;; This function is called by:
  6928 ;;		_main
  6929 ;; This function uses a non-reentrant model
  6930 ;;
  6931                           
  6932                           	psect	text27
  6933  0028FE                     __ptext27:
  6934                           	callstack 0
  6935  0028FE                     _init_timer_and_pie:
  6936                           	callstack 26
  6937  0028FE  0E00               	movlw	0
  6938  002900  6ED5               	movwf	213,c	;volatile
  6939  002902  8ED5               	bsf	213,7,c	;volatile
  6940  002904  86D5               	bsf	213,3,c	;volatile
  6941  002906  0E3C               	movlw	60
  6942  002908  6ED7               	movwf	215,c	;volatile
  6943  00290A  0ED0               	movlw	208
  6944  00290C  6ED6               	movwf	214,c	;volatile
  6945  00290E  9ED0               	bcf	208,7,c	;volatile
  6946  002910  8A9D               	bsf	157,5,c	;volatile
  6947  002912  989D               	bcf	157,4,c	;volatile
  6948  002914  8C9D               	bsf	157,6,c	;volatile
  6949  002916  0E00               	movlw	0
  6950  002918  6EF2               	movwf	242,c	;volatile
  6951  00291A  8AF2               	bsf	242,5,c	;volatile
  6952  00291C  8CF2               	bsf	242,6,c	;volatile
  6953  00291E  8EF2               	bsf	242,7,c	;volatile
  6954  002920  86F2               	bsf	242,3,c	;volatile
  6955  002922  90F2               	bcf	242,0,c	;volatile
  6956  002924  5081               	movf	129,w,c	;volatile
  6957  002926  0012               	return		;funcret
  6958  002928                     __end_of_init_timer_and_pie:
  6959                           	callstack 0
  6960                           
  6961 ;; *************** function _init_serial *****************
  6962 ;; Defined at:
  6963 ;;		line 268 in file "main.c"
  6964 ;; Parameters:    Size  Location     Type
  6965 ;;		None
  6966 ;; Auto vars:     Size  Location     Type
  6967 ;;		None
  6968 ;; Return value:  Size  Location     Type
  6969 ;;                  1    wreg      void 
  6970 ;; Registers used:
  6971 ;;		wreg, status,2
  6972 ;; Tracked objects:
  6973 ;;		On entry : 0/0
  6974 ;;		On exit  : 0/0
  6975 ;;		Unchanged: 0/0
  6976 ;; Data sizes:     COMRAM   BANK0   BANK1   BANK2   BANK3   BANK4   BANK5   BANK6   BANK7   BANK8   BANK9  BANK10  BANK1
      +1  BANK12  BANK13  BANK14  BANK15
  6977 ;;      Params:         0       0       0       0       0       0       0       0       0       0       0       0       
      +0       0       0       0       0
  6978 ;;      Locals:         0       0       0       0       0       0       0       0       0       0       0       0       
      +0       0       0       0       0
  6979 ;;      Temps:          0       0       0       0       0       0       0       0       0       0       0       0       
      +0       0       0       0       0
  6980 ;;      Totals:         0       0       0       0       0       0       0       0       0       0       0       0       
      +0       0       0       0       0
  6981 ;;Total ram usage:        0 bytes
  6982 ;; Hardware stack levels used:    1
  6983 ;; Hardware stack levels required when called:    4
  6984 ;; This function calls:
  6985 ;;		Nothing
  6986 ;; This function is called by:
  6987 ;;		_main
  6988 ;; This function uses a non-reentrant model
  6989 ;;
  6990                           
  6991                           	psect	text28
  6992  002976                     __ptext28:
  6993                           	callstack 0
  6994  002976                     _init_serial:
  6995                           	callstack 26
  6996  002976  9CAC               	bcf	172,6,c	;volatile
  6997  002978  9AAC               	bcf	172,5,c	;volatile
  6998  00297A  98AC               	bcf	172,4,c	;volatile
  6999  00297C  94AC               	bcf	172,2,c	;volatile
  7000  00297E  8EAB               	bsf	171,7,c	;volatile
  7001  002980  9CAB               	bcf	171,6,c	;volatile
  7002  002982  88AB               	bsf	171,4,c	;volatile
  7003  002984  867E               	bsf	126,3,c	;volatile
  7004  002986  0E00               	movlw	0
  7005  002988  6E7F               	movwf	127,c	;volatile
  7006  00298A  0E15               	movlw	21
  7007  00298C  6EAF               	movwf	175,c	;volatile
  7008  00298E  0012               	return		;funcret
  7009  002990                     __end_of_init_serial:
  7010                           	callstack 0
  7011                           
  7012 ;; *************** function _init_ports *****************
  7013 ;; Defined at:
  7014 ;;		line 256 in file "main.c"
  7015 ;; Parameters:    Size  Location     Type
  7016 ;;		None
  7017 ;; Auto vars:     Size  Location     Type
  7018 ;;		None
  7019 ;; Return value:  Size  Location     Type
  7020 ;;                  1    wreg      void 
  7021 ;; Registers used:
  7022 ;;		wreg, status,2
  7023 ;; Tracked objects:
  7024 ;;		On entry : 0/0
  7025 ;;		On exit  : 0/0
  7026 ;;		Unchanged: 0/0
  7027 ;; Data sizes:     COMRAM   BANK0   BANK1   BANK2   BANK3   BANK4   BANK5   BANK6   BANK7   BANK8   BANK9  BANK10  BANK1
      +1  BANK12  BANK13  BANK14  BANK15
  7028 ;;      Params:         0       0       0       0       0       0       0       0       0       0       0       0       
      +0       0       0       0       0
  7029 ;;      Locals:         0       0       0       0       0       0       0       0       0       0       0       0       
      +0       0       0       0       0
  7030 ;;      Temps:          0       0       0       0       0       0       0       0       0       0       0       0       
      +0       0       0       0       0
  7031 ;;      Totals:         0       0       0       0       0       0       0       0       0       0       0       0       
      +0       0       0       0       0
  7032 ;;Total ram usage:        0 bytes
  7033 ;; Hardware stack levels used:    1
  7034 ;; Hardware stack levels required when called:    4
  7035 ;; This function calls:
  7036 ;;		Nothing
  7037 ;; This function is called by:
  7038 ;;		_main
  7039 ;; This function uses a non-reentrant model
  7040 ;;
  7041                           
  7042                           	psect	text29
  7043  002990                     __ptext29:
  7044                           	callstack 0
  7045  002990                     _init_ports:
  7046                           	callstack 26
  7047  002990  0EF0               	movlw	240
  7048  002992  6E93               	movwf	147,c	;volatile
  7049  002994  0E00               	movlw	0
  7050  002996  6E9A               	movwf	154,c	;volatile
  7051  002998  0E10               	movlw	16
  7052  00299A  6E99               	movwf	153,c	;volatile
  7053  00299C  0E00               	movlw	0
  7054  00299E  6E8A               	movwf	138,c	;volatile
  7055  0029A0  0E08               	movlw	8
  7056  0029A2  6E90               	movwf	144,c	;volatile
  7057  0029A4  0E00               	movlw	0
  7058  0029A6  6E91               	movwf	145,c	;volatile
  7059  0029A8  0012               	return		;funcret
  7060  0029AA                     __end_of_init_ports:
  7061                           	callstack 0
  7062                           
  7063 ;; *************** function _init_parking_lots *****************
  7064 ;; Defined at:
  7065 ;;		line 287 in file "main.c"
  7066 ;; Parameters:    Size  Location     Type
  7067 ;;		None
  7068 ;; Auto vars:     Size  Location     Type
  7069 ;;  i               2   18[COMRAM] int 
  7070 ;; Return value:  Size  Location     Type
  7071 ;;                  1    wreg      void 
  7072 ;; Registers used:
  7073 ;;		wreg, fsr2l, fsr2h, status,2, status,0, prodl, prodh, cstack
  7074 ;; Tracked objects:
  7075 ;;		On entry : 0/0
  7076 ;;		On exit  : 0/0
  7077 ;;		Unchanged: 0/0
  7078 ;; Data sizes:     COMRAM   BANK0   BANK1   BANK2   BANK3   BANK4   BANK5   BANK6   BANK7   BANK8   BANK9  BANK10  BANK1
      +1  BANK12  BANK13  BANK14  BANK15
  7079 ;;      Params:         0       0       0       0       0       0       0       0       0       0       0       0       
      +0       0       0       0       0
  7080 ;;      Locals:         2       0       0       0       0       0       0       0       0       0       0       0       
      +0       0       0       0       0
  7081 ;;      Temps:          0       0       0       0       0       0       0       0       0       0       0       0       
      +0       0       0       0       0
  7082 ;;      Totals:         2       0       0       0       0       0       0       0       0       0       0       0       
      +0       0       0       0       0
  7083 ;;Total ram usage:        2 bytes
  7084 ;; Hardware stack levels used:    1
  7085 ;; Hardware stack levels required when called:    5
  7086 ;; This function calls:
  7087 ;;		___wmul
  7088 ;; This function is called by:
  7089 ;;		_main
  7090 ;; This function uses a non-reentrant model
  7091 ;;
  7092                           
  7093                           	psect	text30
  7094  0019E4                     __ptext30:
  7095                           	callstack 0
  7096  0019E4                     _init_parking_lots:
  7097                           	callstack 25
  7098  0019E4  0E00               	movlw	0
  7099  0019E6  6E14               	movwf	(init_parking_lots@i+1)^0,c
  7100  0019E8  0E00               	movlw	0
  7101  0019EA  6E13               	movwf	init_parking_lots@i^0,c
  7102  0019EC                     l4153:
  7103  0019EC  C013  F00D         	movff	init_parking_lots@i,___wmul@multiplier
  7104  0019F0  C014  F00E         	movff	init_parking_lots@i+1,___wmul@multiplier+1
  7105  0019F4  0E00               	movlw	0
  7106  0019F6  6E10               	movwf	(___wmul@multiplicand+1)^0,c
  7107  0019F8  0E06               	movlw	6
  7108  0019FA  6E0F               	movwf	___wmul@multiplicand^0,c
  7109  0019FC  ECA8  F014         	call	___wmul	;wreg free
  7110  001A00  0EB4               	movlw	low _parkA
  7111  001A02  240D               	addwf	?___wmul^0,w,c
  7112  001A04  6ED9               	movwf	fsr2l,c
  7113  001A06  0E01               	movlw	high _parkA
  7114  001A08  200E               	addwfc	(?___wmul+1)^0,w,c
  7115  001A0A  6EDA               	movwf	fsr2h,c
  7116  001A0C  0EFF               	movlw	255
  7117  001A0E  6EDE               	movwf	postinc2,c
  7118  001A10  0EFF               	movlw	255
  7119  001A12  6EDD               	movwf	postdec2,c
  7120  001A14  C013  F00D         	movff	init_parking_lots@i,___wmul@multiplier
  7121  001A18  C014  F00E         	movff	init_parking_lots@i+1,___wmul@multiplier+1
  7122  001A1C  0E00               	movlw	0
  7123  001A1E  6E10               	movwf	(___wmul@multiplicand+1)^0,c
  7124  001A20  0E06               	movlw	6
  7125  001A22  6E0F               	movwf	___wmul@multiplicand^0,c
  7126  001A24  ECA8  F014         	call	___wmul	;wreg free
  7127  001A28  0EB6               	movlw	low (_parkA+2)
  7128  001A2A  240D               	addwf	?___wmul^0,w,c
  7129  001A2C  6ED9               	movwf	fsr2l,c
  7130  001A2E  0E01               	movlw	high (_parkA+2)
  7131  001A30  200E               	addwfc	(?___wmul+1)^0,w,c
  7132  001A32  6EDA               	movwf	fsr2h,c
  7133  001A34  0EFF               	movlw	255
  7134  001A36  6EDE               	movwf	postinc2,c
  7135  001A38  0EFF               	movlw	255
  7136  001A3A  6EDD               	movwf	postdec2,c
  7137  001A3C  C013  F00D         	movff	init_parking_lots@i,___wmul@multiplier
  7138  001A40  C014  F00E         	movff	init_parking_lots@i+1,___wmul@multiplier+1
  7139  001A44  0E00               	movlw	0
  7140  001A46  6E10               	movwf	(___wmul@multiplicand+1)^0,c
  7141  001A48  0E06               	movlw	6
  7142  001A4A  6E0F               	movwf	___wmul@multiplicand^0,c
  7143  001A4C  ECA8  F014         	call	___wmul	;wreg free
  7144  001A50  0E78               	movlw	low _parkB
  7145  001A52  240D               	addwf	?___wmul^0,w,c
  7146  001A54  6ED9               	movwf	fsr2l,c
  7147  001A56  0E01               	movlw	high _parkB
  7148  001A58  200E               	addwfc	(?___wmul+1)^0,w,c
  7149  001A5A  6EDA               	movwf	fsr2h,c
  7150  001A5C  0EFF               	movlw	255
  7151  001A5E  6EDE               	movwf	postinc2,c
  7152  001A60  0EFF               	movlw	255
  7153  001A62  6EDD               	movwf	postdec2,c
  7154  001A64  C013  F00D         	movff	init_parking_lots@i,___wmul@multiplier
  7155  001A68  C014  F00E         	movff	init_parking_lots@i+1,___wmul@multiplier+1
  7156  001A6C  0E00               	movlw	0
  7157  001A6E  6E10               	movwf	(___wmul@multiplicand+1)^0,c
  7158  001A70  0E06               	movlw	6
  7159  001A72  6E0F               	movwf	___wmul@multiplicand^0,c
  7160  001A74  ECA8  F014         	call	___wmul	;wreg free
  7161  001A78  0E7A               	movlw	low (_parkB+2)
  7162  001A7A  240D               	addwf	?___wmul^0,w,c
  7163  001A7C  6ED9               	movwf	fsr2l,c
  7164  001A7E  0E01               	movlw	high (_parkB+2)
  7165  001A80  200E               	addwfc	(?___wmul+1)^0,w,c
  7166  001A82  6EDA               	movwf	fsr2h,c
  7167  001A84  0EFF               	movlw	255
  7168  001A86  6EDE               	movwf	postinc2,c
  7169  001A88  0EFF               	movlw	255
  7170  001A8A  6EDD               	movwf	postdec2,c
  7171  001A8C  C013  F00D         	movff	init_parking_lots@i,___wmul@multiplier
  7172  001A90  C014  F00E         	movff	init_parking_lots@i+1,___wmul@multiplier+1
  7173  001A94  0E00               	movlw	0
  7174  001A96  6E10               	movwf	(___wmul@multiplicand+1)^0,c
  7175  001A98  0E06               	movlw	6
  7176  001A9A  6E0F               	movwf	___wmul@multiplicand^0,c
  7177  001A9C  ECA8  F014         	call	___wmul	;wreg free
  7178  001AA0  0E3C               	movlw	low _parkC
  7179  001AA2  240D               	addwf	?___wmul^0,w,c
  7180  001AA4  6ED9               	movwf	fsr2l,c
  7181  001AA6  0E01               	movlw	high _parkC
  7182  001AA8  200E               	addwfc	(?___wmul+1)^0,w,c
  7183  001AAA  6EDA               	movwf	fsr2h,c
  7184  001AAC  0EFF               	movlw	255
  7185  001AAE  6EDE               	movwf	postinc2,c
  7186  001AB0  0EFF               	movlw	255
  7187  001AB2  6EDD               	movwf	postdec2,c
  7188  001AB4  C013  F00D         	movff	init_parking_lots@i,___wmul@multiplier
  7189  001AB8  C014  F00E         	movff	init_parking_lots@i+1,___wmul@multiplier+1
  7190  001ABC  0E00               	movlw	0
  7191  001ABE  6E10               	movwf	(___wmul@multiplicand+1)^0,c
  7192  001AC0  0E06               	movlw	6
  7193  001AC2  6E0F               	movwf	___wmul@multiplicand^0,c
  7194  001AC4  ECA8  F014         	call	___wmul	;wreg free
  7195  001AC8  0E3E               	movlw	low (_parkC+2)
  7196  001ACA  240D               	addwf	?___wmul^0,w,c
  7197  001ACC  6ED9               	movwf	fsr2l,c
  7198  001ACE  0E01               	movlw	high (_parkC+2)
  7199  001AD0  200E               	addwfc	(?___wmul+1)^0,w,c
  7200  001AD2  6EDA               	movwf	fsr2h,c
  7201  001AD4  0EFF               	movlw	255
  7202  001AD6  6EDE               	movwf	postinc2,c
  7203  001AD8  0EFF               	movlw	255
  7204  001ADA  6EDD               	movwf	postdec2,c
  7205  001ADC  C013  F00D         	movff	init_parking_lots@i,___wmul@multiplier
  7206  001AE0  C014  F00E         	movff	init_parking_lots@i+1,___wmul@multiplier+1
  7207  001AE4  0E00               	movlw	0
  7208  001AE6  6E10               	movwf	(___wmul@multiplicand+1)^0,c
  7209  001AE8  0E06               	movlw	6
  7210  001AEA  6E0F               	movwf	___wmul@multiplicand^0,c
  7211  001AEC  ECA8  F014         	call	___wmul	;wreg free
  7212  001AF0  0E00               	movlw	low _parkD
  7213  001AF2  240D               	addwf	?___wmul^0,w,c
  7214  001AF4  6ED9               	movwf	fsr2l,c
  7215  001AF6  0E01               	movlw	high _parkD
  7216  001AF8  200E               	addwfc	(?___wmul+1)^0,w,c
  7217  001AFA  6EDA               	movwf	fsr2h,c
  7218  001AFC  0EFF               	movlw	255
  7219  001AFE  6EDE               	movwf	postinc2,c
  7220  001B00  0EFF               	movlw	255
  7221  001B02  6EDD               	movwf	postdec2,c
  7222  001B04  C013  F00D         	movff	init_parking_lots@i,___wmul@multiplier
  7223  001B08  C014  F00E         	movff	init_parking_lots@i+1,___wmul@multiplier+1
  7224  001B0C  0E00               	movlw	0
  7225  001B0E  6E10               	movwf	(___wmul@multiplicand+1)^0,c
  7226  001B10  0E06               	movlw	6
  7227  001B12  6E0F               	movwf	___wmul@multiplicand^0,c
  7228  001B14  ECA8  F014         	call	___wmul	;wreg free
  7229  001B18  0E02               	movlw	low (_parkD+2)
  7230  001B1A  240D               	addwf	?___wmul^0,w,c
  7231  001B1C  6ED9               	movwf	fsr2l,c
  7232  001B1E  0E01               	movlw	high (_parkD+2)
  7233  001B20  200E               	addwfc	(?___wmul+1)^0,w,c
  7234  001B22  6EDA               	movwf	fsr2h,c
  7235  001B24  0EFF               	movlw	255
  7236  001B26  6EDE               	movwf	postinc2,c
  7237  001B28  0EFF               	movlw	255
  7238  001B2A  6EDD               	movwf	postdec2,c
  7239  001B2C  4A13               	infsnz	init_parking_lots@i^0,f,c
  7240  001B2E  2A14               	incf	(init_parking_lots@i+1)^0,f,c
  7241  001B30  BE14               	btfsc	(init_parking_lots@i+1)^0,7,c
  7242  001B32  EFA4  F00D         	goto	u3791
  7243  001B36  5014               	movf	(init_parking_lots@i+1)^0,w,c
  7244  001B38  E109               	bnz	u3790
  7245  001B3A  0E0A               	movlw	10
  7246  001B3C  5C13               	subwf	init_parking_lots@i^0,w,c
  7247  001B3E  A0D8               	btfss	status,0,c
  7248  001B40  EFA4  F00D         	goto	u3791
  7249  001B44  EFA6  F00D         	goto	u3790
  7250  001B48                     u3791:
  7251  001B48  EFF6  F00C         	goto	l4153
  7252  001B4C                     u3790:
  7253  001B4C  0012               	return		;funcret
  7254  001B4E                     __end_of_init_parking_lots:
  7255                           	callstack 0
  7256                           
  7257 ;; *************** function ___wmul *****************
  7258 ;; Defined at:
  7259 ;;		line 15 in file "C:\Program Files\Microchip\xc8\v2.30\pic\sources\c99\common\Umul16.c"
  7260 ;; Parameters:    Size  Location     Type
  7261 ;;  multiplier      2   12[COMRAM] unsigned int 
  7262 ;;  multiplicand    2   14[COMRAM] unsigned int 
  7263 ;; Auto vars:     Size  Location     Type
  7264 ;;  product         2   16[COMRAM] unsigned int 
  7265 ;; Return value:  Size  Location     Type
  7266 ;;                  2   12[COMRAM] unsigned int 
  7267 ;; Registers used:
  7268 ;;		wreg, status,2, status,0, prodl, prodh
  7269 ;; Tracked objects:
  7270 ;;		On entry : 0/0
  7271 ;;		On exit  : 0/0
  7272 ;;		Unchanged: 0/0
  7273 ;; Data sizes:     COMRAM   BANK0   BANK1   BANK2   BANK3   BANK4   BANK5   BANK6   BANK7   BANK8   BANK9  BANK10  BANK1
      +1  BANK12  BANK13  BANK14  BANK15
  7274 ;;      Params:         4       0       0       0       0       0       0       0       0       0       0       0       
      +0       0       0       0       0
  7275 ;;      Locals:         2       0       0       0       0       0       0       0       0       0       0       0       
      +0       0       0       0       0
  7276 ;;      Temps:          0       0       0       0       0       0       0       0       0       0       0       0       
      +0       0       0       0       0
  7277 ;;      Totals:         6       0       0       0       0       0       0       0       0       0       0       0       
      +0       0       0       0       0
  7278 ;;Total ram usage:        6 bytes
  7279 ;; Hardware stack levels used:    1
  7280 ;; Hardware stack levels required when called:    4
  7281 ;; This function calls:
  7282 ;;		Nothing
  7283 ;; This function is called by:
  7284 ;;		_init_parking_lots
  7285 ;;		_licence_to_int
  7286 ;;		_park_spot_to_int
  7287 ;;		_park_the_car
  7288 ;;		_reserve_the_lot
  7289 ;;		_exit
  7290 ;; This function uses a non-reentrant model
  7291 ;;
  7292                           
  7293                           	psect	text31
  7294  002950                     __ptext31:
  7295                           	callstack 0
  7296  002950                     ___wmul:
  7297                           	callstack 24
  7298  002950  500D               	movf	___wmul@multiplier^0,w,c
  7299  002952  020F               	mulwf	___wmul@multiplicand^0,c
  7300  002954  CFF3 F011          	movff	prodl,___wmul@product
  7301  002958  CFF4 F012          	movff	prodh,___wmul@product+1
  7302  00295C  500D               	movf	___wmul@multiplier^0,w,c
  7303  00295E  0210               	mulwf	(___wmul@multiplicand+1)^0,c
  7304  002960  50F3               	movf	243,w,c
  7305  002962  2612               	addwf	(___wmul@product+1)^0,f,c
  7306  002964  500E               	movf	(___wmul@multiplier+1)^0,w,c
  7307  002966  020F               	mulwf	___wmul@multiplicand^0,c
  7308  002968  50F3               	movf	243,w,c
  7309  00296A  2612               	addwf	(___wmul@product+1)^0,f,c
  7310  00296C  C011  F00D         	movff	___wmul@product,?___wmul
  7311  002970  C012  F00E         	movff	___wmul@product+1,?___wmul+1
  7312  002974  0012               	return		;funcret
  7313  002976                     __end_of___wmul:
  7314                           	callstack 0
  7315                           
  7316 ;; *************** function _init_adc *****************
  7317 ;; Defined at:
  7318 ;;		line 942 in file "main.c"
  7319 ;; Parameters:    Size  Location     Type
  7320 ;;		None
  7321 ;; Auto vars:     Size  Location     Type
  7322 ;;		None
  7323 ;; Return value:  Size  Location     Type
  7324 ;;                  1    wreg      void 
  7325 ;; Registers used:
  7326 ;;		wreg, status,2
  7327 ;; Tracked objects:
  7328 ;;		On entry : 0/0
  7329 ;;		On exit  : 0/0
  7330 ;;		Unchanged: 0/0
  7331 ;; Data sizes:     COMRAM   BANK0   BANK1   BANK2   BANK3   BANK4   BANK5   BANK6   BANK7   BANK8   BANK9  BANK10  BANK1
      +1  BANK12  BANK13  BANK14  BANK15
  7332 ;;      Params:         0       0       0       0       0       0       0       0       0       0       0       0       
      +0       0       0       0       0
  7333 ;;      Locals:         0       0       0       0       0       0       0       0       0       0       0       0       
      +0       0       0       0       0
  7334 ;;      Temps:          0       0       0       0       0       0       0       0       0       0       0       0       
      +0       0       0       0       0
  7335 ;;      Totals:         0       0       0       0       0       0       0       0       0       0       0       0       
      +0       0       0       0       0
  7336 ;;Total ram usage:        0 bytes
  7337 ;; Hardware stack levels used:    1
  7338 ;; Hardware stack levels required when called:    4
  7339 ;; This function calls:
  7340 ;;		Nothing
  7341 ;; This function is called by:
  7342 ;;		_main
  7343 ;; This function uses a non-reentrant model
  7344 ;;
  7345                           
  7346                           	psect	text32
  7347  0029AA                     __ptext32:
  7348                           	callstack 0
  7349  0029AA                     _init_adc:
  7350                           	callstack 26
  7351  0029AA                     
  7352                           ;main.c: 943:     ADCON0 = 0x31;
  7353  0029AA  0E31               	movlw	49
  7354  0029AC  6EC2               	movwf	194,c	;volatile
  7355                           
  7356                           ;main.c: 944:     ADCON1 = 0x02;
  7357  0029AE  0E02               	movlw	2
  7358  0029B0  6EC1               	movwf	193,c	;volatile
  7359                           
  7360                           ;main.c: 945:     ADCON2 = 0xaa;
  7361  0029B2  0EAA               	movlw	170
  7362  0029B4  6EC0               	movwf	192,c	;volatile
  7363  0029B6  0012               	return		;funcret
  7364  0029B8                     __end_of_init_adc:
  7365                           	callstack 0
  7366                           
  7367 ;; *************** function _high_priority_isr *****************
  7368 ;; Defined at:
  7369 ;;		line 207 in file "main.c"
  7370 ;; Parameters:    Size  Location     Type
  7371 ;;		None
  7372 ;; Auto vars:     Size  Location     Type
  7373 ;;  portb           1   11[COMRAM] unsigned char 
  7374 ;; Return value:  Size  Location     Type
  7375 ;;                  1    wreg      void 
  7376 ;; Registers used:
  7377 ;;		wreg, fsr1l, fsr1h, fsr2l, fsr2h, status,2, status,0, cstack
  7378 ;; Tracked objects:
  7379 ;;		On entry : 0/0
  7380 ;;		On exit  : 0/0
  7381 ;;		Unchanged: 0/0
  7382 ;; Data sizes:     COMRAM   BANK0   BANK1   BANK2   BANK3   BANK4   BANK5   BANK6   BANK7   BANK8   BANK9  BANK10  BANK1
      +1  BANK12  BANK13  BANK14  BANK15
  7383 ;;      Params:         0       0       0       0       0       0       0       0       0       0       0       0       
      +0       0       0       0       0
  7384 ;;      Locals:         1       0       0       0       0       0       0       0       0       0       0       0       
      +0       0       0       0       0
  7385 ;;      Temps:          4       0       0       0       0       0       0       0       0       0       0       0       
      +0       0       0       0       0
  7386 ;;      Totals:         5       0       0       0       0       0       0       0       0       0       0       0       
      +0       0       0       0       0
  7387 ;;Total ram usage:        5 bytes
  7388 ;; Hardware stack levels used:    1
  7389 ;; Hardware stack levels required when called:    3
  7390 ;; This function calls:
  7391 ;;		_adc_isr
  7392 ;;		_receive_isr
  7393 ;;		_transmit_isr
  7394 ;; This function is called by:
  7395 ;;		Interrupt level 2
  7396 ;; This function uses a non-reentrant model
  7397 ;;
  7398                           
  7399                           	psect	intcode
  7400  000008                     __pintcode:
  7401                           	callstack 0
  7402  000008                     _high_priority_isr:
  7403                           	callstack 22
  7404                           
  7405                           ;incstack = 0
  7406  000008  8253               	bsf	int$flags,1,c	;set compiler interrupt flag (level 2)
  7407  00000A  EDA7  F00D         	call	int_func,f	;refresh shadow registers
  7408                           
  7409                           	psect	intcode_body
  7410  001B4E                     __pintcode_body:
  7411                           	callstack 22
  7412  001B4E                     int_func:
  7413                           	callstack 22
  7414  001B4E  0006               	pop		; remove dummy address from shadow register refresh
  7415  001B50  CFE1 F008          	movff	fsr1l,??_high_priority_isr
  7416  001B54  CFE2 F009          	movff	fsr1h,??_high_priority_isr+1
  7417  001B58  CFD9 F00A          	movff	fsr2l,??_high_priority_isr+2
  7418  001B5C  CFDA F00B          	movff	fsr2h,??_high_priority_isr+3
  7419  001B60  AA9E               	btfss	158,5,c	;volatile
  7420  001B62  EFB5  F00D         	goto	i2u413_41
  7421  001B66  EFB7  F00D         	goto	i2u413_40
  7422  001B6A                     i2u413_41:
  7423  001B6A  EFB9  F00D         	goto	i2l4453
  7424  001B6E                     i2u413_40:
  7425  001B6E  ECDC  F014         	call	_receive_isr	;wreg free
  7426  001B72                     i2l4453:
  7427  001B72  A89E               	btfss	158,4,c	;volatile
  7428  001B74  EFBE  F00D         	goto	i2u414_41
  7429  001B78  EFC0  F00D         	goto	i2u414_40
  7430  001B7C                     i2u414_41:
  7431  001B7C  EFC2  F00D         	goto	i2l4457
  7432  001B80                     i2u414_40:
  7433  001B80  EC94  F014         	call	_transmit_isr	;wreg free
  7434  001B84                     i2l4457:
  7435  001B84  AC9E               	btfss	158,6,c	;volatile
  7436  001B86  EFC7  F00D         	goto	i2u415_41
  7437  001B8A  EFC9  F00D         	goto	i2u415_40
  7438  001B8E                     i2u415_41:
  7439  001B8E  EFCB  F00D         	goto	i2l4461
  7440  001B92                     i2u415_40:
  7441  001B92  ECE3  F014         	call	_adc_isr	;wreg free
  7442  001B96                     i2l4461:
  7443  001B96  A4F2               	btfss	242,2,c	;volatile
  7444  001B98  EFD0  F00D         	goto	i2u416_41
  7445  001B9C  EFD2  F00D         	goto	i2u416_40
  7446  001BA0                     i2u416_41:
  7447  001BA0  EF09  F00E         	goto	i2l4481
  7448  001BA4                     i2u416_40:
  7449  001BA4  94F2               	bcf	242,2,c	;volatile
  7450  001BA6  0E3C               	movlw	60
  7451  001BA8  6ED7               	movwf	215,c	;volatile
  7452  001BAA  0ED0               	movlw	208
  7453  001BAC  6ED6               	movwf	214,c	;volatile
  7454  001BAE  504F               	movf	_waiting^0,w,c
  7455  001BB0  1050               	iorwf	(_waiting+1)^0,w,c
  7456  001BB2  A4D8               	btfss	status,2,c
  7457  001BB4  EFDE  F00D         	goto	i2u417_41
  7458  001BB8  EFE0  F00D         	goto	i2u417_40
  7459  001BBC                     i2u417_41:
  7460  001BBC  EFE5  F00D         	goto	i2l4471
  7461  001BC0                     i2u417_40:
  7462  001BC0  4A49               	infsnz	_general_counter^0,f,c
  7463  001BC2  2A4A               	incf	(_general_counter+1)^0,f,c
  7464  001BC4  0100               	movlb	0	; () banked
  7465  001BC6  4BC0               	infsnz	_message_counter& (0+255),f,b
  7466  001BC8  2BC1               	incf	(_message_counter+1)& (0+255),f,b
  7467  001BCA                     i2l4471:
  7468  001BCA  0E64               	movlw	100
  7469  001BCC  0100               	movlb	0	; () banked
  7470  001BCE  19FE               	xorwf	_adc_counter& (0+255),w,b
  7471  001BD0  11FF               	iorwf	(_adc_counter+1)& (0+255),w,b
  7472  001BD2  A4D8               	btfss	status,2,c
  7473  001BD4  EFEE  F00D         	goto	i2u418_41
  7474  001BD8  EFF0  F00D         	goto	i2u418_40
  7475  001BDC                     i2u418_41:
  7476  001BDC  EFFA  F00D         	goto	i2l4475
  7477  001BE0                     i2u418_40:
  7478  001BE0                     
  7479                           ; BSR set to: 0
  7480  001BE0  0E00               	movlw	0
  7481  001BE2  6FFF               	movwf	(_adc_counter+1)& (0+255),b
  7482  001BE4  0E01               	movlw	1
  7483  001BE6  6FFE               	movwf	_adc_counter& (0+255),b
  7484  001BE8  0E00               	movlw	0
  7485  001BEA  6FFD               	movwf	(_check_adc_flag+1)& (0+255),b
  7486  001BEC  0E01               	movlw	1
  7487  001BEE  6FFC               	movwf	_check_adc_flag& (0+255),b
  7488  001BF0  EFFC  F00D         	goto	i2l4477
  7489  001BF4                     i2l4475:
  7490                           
  7491                           ; BSR set to: 0
  7492  001BF4  4BFE               	infsnz	_adc_counter& (0+255),f,b
  7493  001BF6  2BFF               	incf	(_adc_counter+1)& (0+255),f,b
  7494  001BF8                     i2l4477:
  7495                           
  7496                           ; BSR set to: 0
  7497  001BF8  504F               	movf	_waiting^0,w,c
  7498  001BFA  1050               	iorwf	(_waiting+1)^0,w,c
  7499  001BFC  A4D8               	btfss	status,2,c
  7500  001BFE  EF03  F00E         	goto	i2u419_41
  7501  001C02  EF05  F00E         	goto	i2u419_40
  7502  001C06                     i2u419_41:
  7503  001C06  EF09  F00E         	goto	i2l4481
  7504  001C0A                     i2u419_40:
  7505  001C0A                     
  7506                           ; BSR set to: 0
  7507  001C0A  0E00               	movlw	0
  7508  001C0C  6FBB               	movwf	(_update_display+1)& (0+255),b
  7509  001C0E  0E01               	movlw	1
  7510  001C10  6FBA               	movwf	_update_display& (0+255),b
  7511  001C12                     i2l4481:
  7512  001C12  A0F2               	btfss	242,0,c	;volatile
  7513  001C14  EF0E  F00E         	goto	i2u420_41
  7514  001C18  EF10  F00E         	goto	i2u420_40
  7515  001C1C                     i2u420_41:
  7516  001C1C  EF39  F00E         	goto	i2l214
  7517  001C20                     i2u420_40:
  7518  001C20  90F2               	bcf	242,0,c	;volatile
  7519  001C22  CF81 F00C          	movff	3969,high_priority_isr@portb	;volatile
  7520  001C26  A80C               	btfss	high_priority_isr@portb^0,4,c
  7521  001C28  EF18  F00E         	goto	i2u421_41
  7522  001C2C  EF1A  F00E         	goto	i2u421_40
  7523  001C30                     i2u421_41:
  7524  001C30  EF36  F00E         	goto	i2l4493
  7525  001C34                     i2u421_40:
  7526  001C34  5052               	movf	_prev_rb4^0,w,c
  7527  001C36  A4D8               	btfss	status,2,c
  7528  001C38  EF20  F00E         	goto	i2u422_41
  7529  001C3C  EF22  F00E         	goto	i2u422_40
  7530  001C40                     i2u422_41:
  7531  001C40  EF36  F00E         	goto	i2l4493
  7532  001C44                     i2u422_40:
  7533  001C44  0100               	movlb	0	; () banked
  7534  001C46  51FA               	movf	_display_total_money& (0+255),w,b
  7535  001C48  11FB               	iorwf	(_display_total_money+1)& (0+255),w,b
  7536  001C4A  B4D8               	btfsc	status,2,c
  7537  001C4C  EF2A  F00E         	goto	i2u423_41
  7538  001C50  EF2C  F00E         	goto	i2u423_40
  7539  001C54                     i2u423_41:
  7540  001C54  EF32  F00E         	goto	i2l4491
  7541  001C58                     i2u423_40:
  7542  001C58                     
  7543                           ; BSR set to: 0
  7544  001C58  0E00               	movlw	0
  7545  001C5A  6FFB               	movwf	(_display_total_money+1)& (0+255),b
  7546  001C5C  0E00               	movlw	0
  7547  001C5E  6FFA               	movwf	_display_total_money& (0+255),b
  7548  001C60  EF36  F00E         	goto	i2l4493
  7549  001C64                     i2l4491:
  7550                           
  7551                           ; BSR set to: 0
  7552  001C64  0E00               	movlw	0
  7553  001C66  6FFB               	movwf	(_display_total_money+1)& (0+255),b
  7554  001C68  0E01               	movlw	1
  7555  001C6A  6FFA               	movwf	_display_total_money& (0+255),b
  7556  001C6C                     i2l4493:
  7557  001C6C  500C               	movf	high_priority_isr@portb^0,w,c
  7558  001C6E  0B10               	andlw	16
  7559  001C70  6E52               	movwf	_prev_rb4^0,c
  7560  001C72                     i2l214:
  7561  001C72  C00B  FFDA         	movff	??_high_priority_isr+3,fsr2h
  7562  001C76  C00A  FFD9         	movff	??_high_priority_isr+2,fsr2l
  7563  001C7A  C009  FFE2         	movff	??_high_priority_isr+1,fsr1h
  7564  001C7E  C008  FFE1         	movff	??_high_priority_isr,fsr1l
  7565  001C82  9253               	bcf	int$flags,1,c	;clear compiler interrupt flag (level 2)
  7566  001C84  0011               	retfie		f
  7567  001C86                     __end_of_high_priority_isr:
  7568                           	callstack 0
  7569                           
  7570 ;; *************** function _transmit_isr *****************
  7571 ;; Defined at:
  7572 ;;		line 190 in file "main.c"
  7573 ;; Parameters:    Size  Location     Type
  7574 ;;		None
  7575 ;; Auto vars:     Size  Location     Type
  7576 ;;		None
  7577 ;; Return value:  Size  Location     Type
  7578 ;;                  1    wreg      void 
  7579 ;; Registers used:
  7580 ;;		wreg, fsr1l, fsr1h, fsr2l, fsr2h, status,2, status,0, cstack
  7581 ;; Tracked objects:
  7582 ;;		On entry : 0/0
  7583 ;;		On exit  : 0/0
  7584 ;;		Unchanged: 0/0
  7585 ;; Data sizes:     COMRAM   BANK0   BANK1   BANK2   BANK3   BANK4   BANK5   BANK6   BANK7   BANK8   BANK9  BANK10  BANK1
      +1  BANK12  BANK13  BANK14  BANK15
  7586 ;;      Params:         0       0       0       0       0       0       0       0       0       0       0       0       
      +0       0       0       0       0
  7587 ;;      Locals:         0       0       0       0       0       0       0       0       0       0       0       0       
      +0       0       0       0       0
  7588 ;;      Temps:          0       0       0       0       0       0       0       0       0       0       0       0       
      +0       0       0       0       0
  7589 ;;      Totals:         0       0       0       0       0       0       0       0       0       0       0       0       
      +0       0       0       0       0
  7590 ;;Total ram usage:        0 bytes
  7591 ;; Hardware stack levels used:    1
  7592 ;; Hardware stack levels required when called:    2
  7593 ;; This function calls:
  7594 ;;		_buf_isempty
  7595 ;;		_buf_pop
  7596 ;; This function is called by:
  7597 ;;		_high_priority_isr
  7598 ;; This function uses a non-reentrant model
  7599 ;;
  7600                           
  7601                           	psect	text34
  7602  002928                     __ptext34:
  7603                           	callstack 0
  7604  002928                     _transmit_isr:
  7605                           	callstack 22
  7606  002928  989E               	bcf	158,4,c	;volatile
  7607  00292A  0E01               	movlw	1
  7608  00292C  EC41  F013         	call	_buf_isempty
  7609  002930  06E8               	decf	wreg,f,c
  7610  002932  A4D8               	btfss	status,2,c
  7611  002934  EF9E  F014         	goto	i2u378_41
  7612  002938  EFA0  F014         	goto	i2u378_40
  7613  00293C                     i2u378_41:
  7614  00293C  EFA3  F014         	goto	i2l4139
  7615  002940                     i2u378_40:
  7616  002940  9AAC               	bcf	172,5,c	;volatile
  7617  002942  EFA7  F014         	goto	i2l194
  7618  002946                     i2l4139:
  7619  002946  0E01               	movlw	1
  7620  002948  EC51  F00F         	call	_buf_pop
  7621  00294C  6EAD               	movwf	173,c	;volatile
  7622  00294E                     i2l194:
  7623  00294E  0012               	return		;funcret
  7624  002950                     __end_of_transmit_isr:
  7625                           	callstack 0
  7626                           
  7627 ;; *************** function _buf_pop *****************
  7628 ;; Defined at:
  7629 ;;		line 171 in file "main.c"
  7630 ;; Parameters:    Size  Location     Type
  7631 ;;  buf             1    wreg     enum E4993
  7632 ;; Auto vars:     Size  Location     Type
  7633 ;;  buf             1    6[COMRAM] enum E4993
  7634 ;;  v               1    5[COMRAM] unsigned char 
  7635 ;; Return value:  Size  Location     Type
  7636 ;;                  1    wreg      unsigned char 
  7637 ;; Registers used:
  7638 ;;		wreg, fsr1l, fsr1h, fsr2l, fsr2h, status,2, status,0, cstack
  7639 ;; Tracked objects:
  7640 ;;		On entry : 0/0
  7641 ;;		On exit  : 0/0
  7642 ;;		Unchanged: 0/0
  7643 ;; Data sizes:     COMRAM   BANK0   BANK1   BANK2   BANK3   BANK4   BANK5   BANK6   BANK7   BANK8   BANK9  BANK10  BANK1
      +1  BANK12  BANK13  BANK14  BANK15
  7644 ;;      Params:         0       0       0       0       0       0       0       0       0       0       0       0       
      +0       0       0       0       0
  7645 ;;      Locals:         0       0       0       0       0       0       0       0       0       0       0       0       
      +0       0       0       0       0
  7646 ;;      Temps:          0       0       0       0       0       0       0       0       0       0       0       0       
      +0       0       0       0       0
  7647 ;;      Totals:         0       0       0       0       0       0       0       0       0       0       0       0       
      +0       0       0       0       0
  7648 ;;Total ram usage:        0 bytes
  7649 ;; Hardware stack levels used:    1
  7650 ;; Hardware stack levels required when called:    5
  7651 ;; This function calls:
  7652 ;;		_buf_isempty
  7653 ;; This function is called by:
  7654 ;;		_transmit_isr
  7655 ;;		_packet_task
  7656 ;;		_output_task
  7657 ;; This function uses a non-reentrant model
  7658 ;;
  7659                           
  7660                           	psect	text35
  7661  001EA2                     __ptext35:
  7662                           	callstack 0
  7663  001EA2                     _buf_pop:
  7664                           	callstack 18
  7665                           
  7666                           ;incstack = 0
  7667                           ;buf_pop@buf stored from wreg
  7668  001EA2  6E07               	movwf	buf_pop@buf^0,c
  7669  001EA4  5007               	movf	buf_pop@buf^0,w,c
  7670  001EA6  EC41  F013         	call	_buf_isempty
  7671  001EAA  0900               	iorlw	0
  7672  001EAC  B4D8               	btfsc	status,2,c
  7673  001EAE  EF5B  F00F         	goto	i2u363_41
  7674  001EB2  EF5D  F00F         	goto	i2u363_40
  7675  001EB6                     i2u363_41:
  7676  001EB6  EF60  F00F         	goto	i2l4043
  7677  001EBA                     i2u363_40:
  7678  001EBA  0E00               	movlw	0
  7679  001EBC  EFBC  F00F         	goto	i2l182
  7680  001EC0                     i2l4043:
  7681  001EC0  5007               	movf	buf_pop@buf^0,w,c
  7682  001EC2  A4D8               	btfss	status,2,c
  7683  001EC4  EF66  F00F         	goto	i2u364_41
  7684  001EC8  EF68  F00F         	goto	i2u364_40
  7685  001ECC                     i2u364_41:
  7686  001ECC  EF7B  F00F         	goto	i2l4047
  7687  001ED0                     i2u364_40:
  7688  001ED0  0E43               	movlw	low _tail
  7689  001ED2  2407               	addwf	buf_pop@buf^0,w,c
  7690  001ED4  6ED9               	movwf	fsr2l,c
  7691  001ED6  6ADA               	clrf	fsr2h,c
  7692  001ED8  0E00               	movlw	high _tail
  7693  001EDA  22DA               	addwfc	fsr2h,f,c
  7694  001EDC  50DF               	movf	indf2,w,c
  7695  001EDE  6E04               	movwf	??_buf_pop^0,c
  7696  001EE0  6A05               	clrf	(??_buf_pop+1)^0,c
  7697  001EE2  0E00               	movlw	low _inbuf
  7698  001EE4  2404               	addwf	??_buf_pop^0,w,c
  7699  001EE6  6ED9               	movwf	fsr2l,c
  7700  001EE8  0E03               	movlw	high _inbuf
  7701  001EEA  2005               	addwfc	(??_buf_pop+1)^0,w,c
  7702  001EEC  6EDA               	movwf	fsr2h,c
  7703  001EEE  50DF               	movf	indf2,w,c
  7704  001EF0  6E06               	movwf	buf_pop@v^0,c
  7705  001EF2  EF9D  F00F         	goto	i2l185
  7706  001EF6                     i2l4047:
  7707  001EF6  0E43               	movlw	low _tail
  7708  001EF8  2407               	addwf	buf_pop@buf^0,w,c
  7709  001EFA  6ED9               	movwf	fsr2l,c
  7710  001EFC  6ADA               	clrf	fsr2h,c
  7711  001EFE  0E00               	movlw	high _tail
  7712  001F00  22DA               	addwfc	fsr2h,f,c
  7713  001F02  50DF               	movf	indf2,w,c
  7714  001F04  6E04               	movwf	??_buf_pop^0,c
  7715  001F06  6A05               	clrf	(??_buf_pop+1)^0,c
  7716  001F08  0E00               	movlw	low _outbuf
  7717  001F0A  2404               	addwf	??_buf_pop^0,w,c
  7718  001F0C  6ED9               	movwf	fsr2l,c
  7719  001F0E  0E02               	movlw	high _outbuf
  7720  001F10  2005               	addwfc	(??_buf_pop+1)^0,w,c
  7721  001F12  6EDA               	movwf	fsr2h,c
  7722  001F14  50DF               	movf	indf2,w,c
  7723  001F16  6E06               	movwf	buf_pop@v^0,c
  7724  001F18  0E43               	movlw	low _tail
  7725  001F1A  2407               	addwf	buf_pop@buf^0,w,c
  7726  001F1C  6ED9               	movwf	fsr2l,c
  7727  001F1E  6ADA               	clrf	fsr2h,c
  7728  001F20  0E00               	movlw	high _tail
  7729  001F22  22DA               	addwfc	fsr2h,f,c
  7730  001F24  50DF               	movf	indf2,w,c
  7731  001F26  6E04               	movwf	??_buf_pop^0,c
  7732  001F28  6A05               	clrf	(??_buf_pop+1)^0,c
  7733  001F2A  0E00               	movlw	low _outbuf
  7734  001F2C  2404               	addwf	??_buf_pop^0,w,c
  7735  001F2E  6ED9               	movwf	fsr2l,c
  7736  001F30  0E02               	movlw	high _outbuf
  7737  001F32  2005               	addwfc	(??_buf_pop+1)^0,w,c
  7738  001F34  6EDA               	movwf	fsr2h,c
  7739  001F36  0E00               	movlw	0
  7740  001F38  6EDF               	movwf	indf2,c
  7741  001F3A                     i2l185:
  7742  001F3A  0E43               	movlw	low _tail
  7743  001F3C  2407               	addwf	buf_pop@buf^0,w,c
  7744  001F3E  6ED9               	movwf	fsr2l,c
  7745  001F40  6ADA               	clrf	fsr2h,c
  7746  001F42  0E00               	movlw	high _tail
  7747  001F44  22DA               	addwfc	fsr2h,f,c
  7748  001F46  2ADF               	incf	indf2,f,c
  7749  001F48  0E43               	movlw	low _tail
  7750  001F4A  2407               	addwf	buf_pop@buf^0,w,c
  7751  001F4C  6ED9               	movwf	fsr2l,c
  7752  001F4E  6ADA               	clrf	fsr2h,c
  7753  001F50  0E00               	movlw	high _tail
  7754  001F52  22DA               	addwfc	fsr2h,f,c
  7755  001F54  0E80               	movlw	128
  7756  001F56  18DE               	xorwf	postinc2,w,c
  7757  001F58  A4D8               	btfss	status,2,c
  7758  001F5A  EFB1  F00F         	goto	i2u365_41
  7759  001F5E  EFB3  F00F         	goto	i2u365_40
  7760  001F62                     i2u365_41:
  7761  001F62  EFBB  F00F         	goto	i2l4051
  7762  001F66                     i2u365_40:
  7763  001F66  0E43               	movlw	low _tail
  7764  001F68  2407               	addwf	buf_pop@buf^0,w,c
  7765  001F6A  6ED9               	movwf	fsr2l,c
  7766  001F6C  6ADA               	clrf	fsr2h,c
  7767  001F6E  0E00               	movlw	high _tail
  7768  001F70  22DA               	addwfc	fsr2h,f,c
  7769  001F72  0E00               	movlw	0
  7770  001F74  6EDF               	movwf	indf2,c
  7771  001F76                     i2l4051:
  7772  001F76  5006               	movf	buf_pop@v^0,w,c
  7773  001F78                     i2l182:
  7774  001F78  0012               	return		;funcret
  7775  001F7A                     __end_of_buf_pop:
  7776                           	callstack 0
  7777                           
  7778 ;; *************** function _buf_isempty *****************
  7779 ;; Defined at:
  7780 ;;		line 155 in file "main.c"
  7781 ;; Parameters:    Size  Location     Type
  7782 ;;  buf             1    wreg     enum E4993
  7783 ;; Auto vars:     Size  Location     Type
  7784 ;;  buf             1    2[COMRAM] enum E4993
  7785 ;; Return value:  Size  Location     Type
  7786 ;;                  1    wreg      unsigned char 
  7787 ;; Registers used:
  7788 ;;		wreg, fsr1l, fsr1h, fsr2l, fsr2h, status,2, status,0
  7789 ;; Tracked objects:
  7790 ;;		On entry : 0/0
  7791 ;;		On exit  : 0/0
  7792 ;;		Unchanged: 0/0
  7793 ;; Data sizes:     COMRAM   BANK0   BANK1   BANK2   BANK3   BANK4   BANK5   BANK6   BANK7   BANK8   BANK9  BANK10  BANK1
      +1  BANK12  BANK13  BANK14  BANK15
  7794 ;;      Params:         0       0       0       0       0       0       0       0       0       0       0       0       
      +0       0       0       0       0
  7795 ;;      Locals:         0       0       0       0       0       0       0       0       0       0       0       0       
      +0       0       0       0       0
  7796 ;;      Temps:          0       0       0       0       0       0       0       0       0       0       0       0       
      +0       0       0       0       0
  7797 ;;      Totals:         0       0       0       0       0       0       0       0       0       0       0       0       
      +0       0       0       0       0
  7798 ;;Total ram usage:        0 bytes
  7799 ;; Hardware stack levels used:    1
  7800 ;; Hardware stack levels required when called:    4
  7801 ;; This function calls:
  7802 ;;		Nothing
  7803 ;; This function is called by:
  7804 ;;		_buf_pop
  7805 ;;		_transmit_isr
  7806 ;;		_packet_task
  7807 ;;		_output_task
  7808 ;; This function uses a non-reentrant model
  7809 ;;
  7810                           
  7811                           	psect	text36
  7812  002682                     __ptext36:
  7813                           	callstack 0
  7814  002682                     _buf_isempty:
  7815                           	callstack 18
  7816                           
  7817                           ;incstack = 0
  7818                           ;buf_isempty@buf stored from wreg
  7819  002682  6E03               	movwf	buf_isempty@buf^0,c
  7820  002684  0E45               	movlw	low _head
  7821  002686  2403               	addwf	buf_isempty@buf^0,w,c
  7822  002688  6ED9               	movwf	fsr2l,c
  7823  00268A  6ADA               	clrf	fsr2h,c
  7824  00268C  0E00               	movlw	high _head
  7825  00268E  22DA               	addwfc	fsr2h,f,c
  7826  002690  50DF               	movf	indf2,w,c
  7827  002692  6E01               	movwf	??_buf_isempty^0,c
  7828  002694  5001               	movf	??_buf_isempty^0,w,c
  7829  002696  0100               	movlb	0	; () banked
  7830  002698  6F9E               	movwf	_headX& (0+255),b
  7831  00269A  6B9F               	clrf	(_headX+1)& (0+255),b
  7832  00269C  0E43               	movlw	low _tail
  7833  00269E  2403               	addwf	buf_isempty@buf^0,w,c
  7834  0026A0  6ED9               	movwf	fsr2l,c
  7835  0026A2  6ADA               	clrf	fsr2h,c
  7836  0026A4  0E00               	movlw	high _tail
  7837  0026A6  22DA               	addwfc	fsr2h,f,c
  7838  0026A8  50DF               	movf	indf2,w,c
  7839  0026AA  6E01               	movwf	??_buf_isempty^0,c
  7840  0026AC  5001               	movf	??_buf_isempty^0,w,c
  7841  0026AE  6F9C               	movwf	_tailX& (0+255),b
  7842  0026B0  6B9D               	clrf	(_tailX+1)& (0+255),b
  7843  0026B2                     
  7844                           ; BSR set to: 0
  7845  0026B2  0E43               	movlw	low _tail
  7846  0026B4  2403               	addwf	buf_isempty@buf^0,w,c
  7847  0026B6  6ED9               	movwf	fsr2l,c
  7848  0026B8  6ADA               	clrf	fsr2h,c
  7849  0026BA  0E00               	movlw	high _tail
  7850  0026BC  22DA               	addwfc	fsr2h,f,c
  7851  0026BE  0E45               	movlw	low _head
  7852  0026C0  2403               	addwf	buf_isempty@buf^0,w,c
  7853  0026C2  6EE1               	movwf	fsr1l,c
  7854  0026C4  6AE2               	clrf	fsr1h,c
  7855  0026C6  0E00               	movlw	high _head
  7856  0026C8  22E2               	addwfc	fsr1h,f,c
  7857  0026CA  50DE               	movf	postinc2,w,c
  7858  0026CC  18E6               	xorwf	postinc1,w,c
  7859  0026CE  B4D8               	btfsc	status,2,c
  7860  0026D0  EF6C  F013         	goto	i2u305_41
  7861  0026D4  EF6F  F013         	goto	i2u305_40
  7862  0026D8                     i2u305_41:
  7863  0026D8  0E01               	movlw	1
  7864  0026DA  EF70  F013         	goto	i2u306_40
  7865  0026DE                     i2u305_40:
  7866  0026DE  0E00               	movlw	0
  7867  0026E0                     i2u306_40:
  7868  0026E0                     
  7869                           ; BSR set to: 0
  7870  0026E0  0012               	return		;funcret
  7871  0026E2                     __end_of_buf_isempty:
  7872                           	callstack 0
  7873                           
  7874 ;; *************** function _receive_isr *****************
  7875 ;; Defined at:
  7876 ;;		line 186 in file "main.c"
  7877 ;; Parameters:    Size  Location     Type
  7878 ;;		None
  7879 ;; Auto vars:     Size  Location     Type
  7880 ;;		None
  7881 ;; Return value:  Size  Location     Type
  7882 ;;                  1    wreg      void 
  7883 ;; Registers used:
  7884 ;;		wreg, fsr2l, fsr2h, status,2, status,0, cstack
  7885 ;; Tracked objects:
  7886 ;;		On entry : 0/0
  7887 ;;		On exit  : 0/0
  7888 ;;		Unchanged: 0/0
  7889 ;; Data sizes:     COMRAM   BANK0   BANK1   BANK2   BANK3   BANK4   BANK5   BANK6   BANK7   BANK8   BANK9  BANK10  BANK1
      +1  BANK12  BANK13  BANK14  BANK15
  7890 ;;      Params:         0       0       0       0       0       0       0       0       0       0       0       0       
      +0       0       0       0       0
  7891 ;;      Locals:         0       0       0       0       0       0       0       0       0       0       0       0       
      +0       0       0       0       0
  7892 ;;      Temps:          0       0       0       0       0       0       0       0       0       0       0       0       
      +0       0       0       0       0
  7893 ;;      Totals:         0       0       0       0       0       0       0       0       0       0       0       0       
      +0       0       0       0       0
  7894 ;;Total ram usage:        0 bytes
  7895 ;; Hardware stack levels used:    1
  7896 ;; Hardware stack levels required when called:    1
  7897 ;; This function calls:
  7898 ;;		i2_buf_push
  7899 ;; This function is called by:
  7900 ;;		_high_priority_isr
  7901 ;; This function uses a non-reentrant model
  7902 ;;
  7903                           
  7904                           	psect	text37
  7905  0029B8                     __ptext37:
  7906                           	callstack 0
  7907  0029B8                     _receive_isr:
  7908                           	callstack 23
  7909  0029B8  9A9E               	bcf	158,5,c	;volatile
  7910  0029BA  0E00               	movlw	0
  7911  0029BC  6E01               	movwf	i2buf_push@buf^0,c
  7912  0029BE  50AE               	movf	174,w,c	;volatile
  7913  0029C0  EC06  F012         	call	i2_buf_push
  7914  0029C4  0012               	return		;funcret
  7915  0029C6                     __end_of_receive_isr:
  7916                           	callstack 0
  7917                           
  7918 ;; *************** function i2_buf_push *****************
  7919 ;; Defined at:
  7920 ;;		line 162 in file "main.c"
  7921 ;; Parameters:    Size  Location     Type
  7922 ;;  v               1    wreg     unsigned char 
  7923 ;;  buf             1    0[COMRAM] enum E4993
  7924 ;; Auto vars:     Size  Location     Type
  7925 ;;  v               1    3[COMRAM] unsigned char 
  7926 ;; Return value:  Size  Location     Type
  7927 ;;                  1    wreg      void 
  7928 ;; Registers used:
  7929 ;;		wreg, fsr2l, fsr2h, status,2, status,0
  7930 ;; Tracked objects:
  7931 ;;		On entry : 0/0
  7932 ;;		On exit  : 0/0
  7933 ;;		Unchanged: 0/0
  7934 ;; Data sizes:     COMRAM   BANK0   BANK1   BANK2   BANK3   BANK4   BANK5   BANK6   BANK7   BANK8   BANK9  BANK10  BANK1
      +1  BANK12  BANK13  BANK14  BANK15
  7935 ;;      Params:         1       0       0       0       0       0       0       0       0       0       0       0       
      +0       0       0       0       0
  7936 ;;      Locals:         1       0       0       0       0       0       0       0       0       0       0       0       
      +0       0       0       0       0
  7937 ;;      Temps:          2       0       0       0       0       0       0       0       0       0       0       0       
      +0       0       0       0       0
  7938 ;;      Totals:         4       0       0       0       0       0       0       0       0       0       0       0       
      +0       0       0       0       0
  7939 ;;Total ram usage:        4 bytes
  7940 ;; Hardware stack levels used:    1
  7941 ;; This function calls:
  7942 ;;		Nothing
  7943 ;; This function is called by:
  7944 ;;		_receive_isr
  7945 ;; This function uses a non-reentrant model
  7946 ;;
  7947                           
  7948                           	psect	text38
  7949  00240C                     __ptext38:
  7950                           	callstack 0
  7951  00240C                     i2_buf_push:
  7952                           	callstack 23
  7953                           
  7954                           ;incstack = 0
  7955                           ;i2buf_push@v stored from wreg
  7956  00240C  6E04               	movwf	i2buf_push@v^0,c
  7957  00240E  5001               	movf	i2buf_push@buf^0,w,c
  7958  002410  A4D8               	btfss	status,2,c
  7959  002412  EF0D  F012         	goto	i2u231_41
  7960  002416  EF0F  F012         	goto	i2u231_40
  7961  00241A                     i2u231_41:
  7962  00241A  EF22  F012         	goto	i2l2915
  7963  00241E                     i2u231_40:
  7964  00241E  0E45               	movlw	low _head
  7965  002420  2401               	addwf	i2buf_push@buf^0,w,c
  7966  002422  6ED9               	movwf	fsr2l,c
  7967  002424  6ADA               	clrf	fsr2h,c
  7968  002426  0E00               	movlw	high _head
  7969  002428  22DA               	addwfc	fsr2h,f,c
  7970  00242A  50DF               	movf	indf2,w,c
  7971  00242C  6E02               	movwf	??i2_buf_push^0,c
  7972  00242E  6A03               	clrf	(??i2_buf_push+1)^0,c
  7973  002430  0E00               	movlw	low _inbuf
  7974  002432  2402               	addwf	??i2_buf_push^0,w,c
  7975  002434  6ED9               	movwf	fsr2l,c
  7976  002436  0E03               	movlw	high _inbuf
  7977  002438  2003               	addwfc	(??i2_buf_push+1)^0,w,c
  7978  00243A  6EDA               	movwf	fsr2h,c
  7979  00243C  C004  FFDF         	movff	i2buf_push@v,indf2
  7980  002440  EF33  F012         	goto	i2l175
  7981  002444                     i2l2915:
  7982  002444  0E45               	movlw	low _head
  7983  002446  2401               	addwf	i2buf_push@buf^0,w,c
  7984  002448  6ED9               	movwf	fsr2l,c
  7985  00244A  6ADA               	clrf	fsr2h,c
  7986  00244C  0E00               	movlw	high _head
  7987  00244E  22DA               	addwfc	fsr2h,f,c
  7988  002450  50DF               	movf	indf2,w,c
  7989  002452  6E02               	movwf	??i2_buf_push^0,c
  7990  002454  6A03               	clrf	(??i2_buf_push+1)^0,c
  7991  002456  0E00               	movlw	low _outbuf
  7992  002458  2402               	addwf	??i2_buf_push^0,w,c
  7993  00245A  6ED9               	movwf	fsr2l,c
  7994  00245C  0E02               	movlw	high _outbuf
  7995  00245E  2003               	addwfc	(??i2_buf_push+1)^0,w,c
  7996  002460  6EDA               	movwf	fsr2h,c
  7997  002462  C004  FFDF         	movff	i2buf_push@v,indf2
  7998  002466                     i2l175:
  7999  002466  0E45               	movlw	low _head
  8000  002468  2401               	addwf	i2buf_push@buf^0,w,c
  8001  00246A  6ED9               	movwf	fsr2l,c
  8002  00246C  6ADA               	clrf	fsr2h,c
  8003  00246E  0E00               	movlw	high _head
  8004  002470  22DA               	addwfc	fsr2h,f,c
  8005  002472  2ADF               	incf	indf2,f,c
  8006  002474  0E45               	movlw	low _head
  8007  002476  2401               	addwf	i2buf_push@buf^0,w,c
  8008  002478  6ED9               	movwf	fsr2l,c
  8009  00247A  6ADA               	clrf	fsr2h,c
  8010  00247C  0E00               	movlw	high _head
  8011  00247E  22DA               	addwfc	fsr2h,f,c
  8012  002480  0E80               	movlw	128
  8013  002482  18DE               	xorwf	postinc2,w,c
  8014  002484  A4D8               	btfss	status,2,c
  8015  002486  EF47  F012         	goto	i2u232_41
  8016  00248A  EF49  F012         	goto	i2u232_40
  8017  00248E                     i2u232_41:
  8018  00248E  EF51  F012         	goto	i2l178
  8019  002492                     i2u232_40:
  8020  002492  0E45               	movlw	low _head
  8021  002494  2401               	addwf	i2buf_push@buf^0,w,c
  8022  002496  6ED9               	movwf	fsr2l,c
  8023  002498  6ADA               	clrf	fsr2h,c
  8024  00249A  0E00               	movlw	high _head
  8025  00249C  22DA               	addwfc	fsr2h,f,c
  8026  00249E  0E00               	movlw	0
  8027  0024A0  6EDF               	movwf	indf2,c
  8028  0024A2                     i2l178:
  8029  0024A2  0012               	return		;funcret
  8030  0024A4                     __end_ofi2_buf_push:
  8031                           	callstack 0
  8032                           
  8033 ;; *************** function _adc_isr *****************
  8034 ;; Defined at:
  8035 ;;		line 200 in file "main.c"
  8036 ;; Parameters:    Size  Location     Type
  8037 ;;		None
  8038 ;; Auto vars:     Size  Location     Type
  8039 ;;		None
  8040 ;; Return value:  Size  Location     Type
  8041 ;;                  1    wreg      void 
  8042 ;; Registers used:
  8043 ;;		wreg, status,2
  8044 ;; Tracked objects:
  8045 ;;		On entry : 0/0
  8046 ;;		On exit  : 0/0
  8047 ;;		Unchanged: 0/0
  8048 ;; Data sizes:     COMRAM   BANK0   BANK1   BANK2   BANK3   BANK4   BANK5   BANK6   BANK7   BANK8   BANK9  BANK10  BANK1
      +1  BANK12  BANK13  BANK14  BANK15
  8049 ;;      Params:         0       0       0       0       0       0       0       0       0       0       0       0       
      +0       0       0       0       0
  8050 ;;      Locals:         0       0       0       0       0       0       0       0       0       0       0       0       
      +0       0       0       0       0
  8051 ;;      Temps:          0       0       0       0       0       0       0       0       0       0       0       0       
      +0       0       0       0       0
  8052 ;;      Totals:         0       0       0       0       0       0       0       0       0       0       0       0       
      +0       0       0       0       0
  8053 ;;Total ram usage:        0 bytes
  8054 ;; Hardware stack levels used:    1
  8055 ;; This function calls:
  8056 ;;		Nothing
  8057 ;; This function is called by:
  8058 ;;		_high_priority_isr
  8059 ;; This function uses a non-reentrant model
  8060 ;;
  8061                           
  8062                           	psect	text39
  8063  0029C6                     __ptext39:
  8064                           	callstack 0
  8065  0029C6                     _adc_isr:
  8066                           	callstack 24
  8067  0029C6  9C9E               	bcf	158,6,c	;volatile
  8068  0029C8  0E00               	movlw	0
  8069  0029CA  0100               	movlb	0	; () banked
  8070  0029CC  6FB3               	movwf	(_read_adc_value+1)& (0+255),b
  8071  0029CE  0E01               	movlw	1
  8072  0029D0  6FB2               	movwf	_read_adc_value& (0+255),b
  8073  0029D2                     
  8074                           ; BSR set to: 0
  8075  0029D2  0012               	return		;funcret
  8076  0029D4                     __end_of_adc_isr:
  8077                           	callstack 0
  8078  0000                     
  8079                           	psect	rparam
  8080  0000                     
  8081                           	psect	temp
  8082  000053                     btemp:
  8083                           	callstack 0
  8084  000053                     	ds	1
  8085  0000                     int$flags	set	btemp
  8086  0000                     wtemp8	set	btemp+1
  8087  0000                     ttemp5	set	btemp+1
  8088  0000                     ttemp6	set	btemp+4
  8089  0000                     ttemp7	set	btemp+8
  8090                           
  8091                           	psect	idloc
  8092                           
  8093                           ;Config register IDLOC0 @ 0x200000
  8094                           ;	unspecified, using default values
  8095  200000                     	org	2097152
  8096  200000  FF                 	db	255
  8097                           
  8098                           ;Config register IDLOC1 @ 0x200001
  8099                           ;	unspecified, using default values
  8100  200001                     	org	2097153
  8101  200001  FF                 	db	255
  8102                           
  8103                           ;Config register IDLOC2 @ 0x200002
  8104                           ;	unspecified, using default values
  8105  200002                     	org	2097154
  8106  200002  FF                 	db	255
  8107                           
  8108                           ;Config register IDLOC3 @ 0x200003
  8109                           ;	unspecified, using default values
  8110  200003                     	org	2097155
  8111  200003  FF                 	db	255
  8112                           
  8113                           ;Config register IDLOC4 @ 0x200004
  8114                           ;	unspecified, using default values
  8115  200004                     	org	2097156
  8116  200004  FF                 	db	255
  8117                           
  8118                           ;Config register IDLOC5 @ 0x200005
  8119                           ;	unspecified, using default values
  8120  200005                     	org	2097157
  8121  200005  FF                 	db	255
  8122                           
  8123                           ;Config register IDLOC6 @ 0x200006
  8124                           ;	unspecified, using default values
  8125  200006                     	org	2097158
  8126  200006  FF                 	db	255
  8127                           
  8128                           ;Config register IDLOC7 @ 0x200007
  8129                           ;	unspecified, using default values
  8130  200007                     	org	2097159
  8131  200007  FF                 	db	255
  8132                           
  8133                           	psect	config
  8134                           
  8135                           ; Padding undefined space
  8136  300000                     	org	3145728
  8137  300000  FF                 	db	255
  8138                           
  8139                           ;Config register CONFIG1H @ 0x300001
  8140                           ;	Oscillator Selection bits
  8141                           ;	OSC = HSPLL, HS oscillator, PLL enabled (Clock Frequency = 4 x FOSC1)
  8142                           ;	Fail-Safe Clock Monitor Enable bit
  8143                           ;	FCMEN = OFF, Fail-Safe Clock Monitor disabled
  8144                           ;	Internal/External Oscillator Switchover bit
  8145                           ;	IESO = OFF, Two-Speed Start-up disabled
  8146  300001                     	org	3145729
  8147  300001  06                 	db	6
  8148                           
  8149                           ;Config register CONFIG2L @ 0x300002
  8150                           ;	Power-up Timer Enable bit
  8151                           ;	PWRT = OFF, PWRT disabled
  8152                           ;	Brown-out Reset Enable bits
  8153                           ;	BOREN = OFF, Brown-out Reset disabled in hardware and software
  8154                           ;	Brown-out Voltage bits
  8155                           ;	BORV = 3, Minimum setting
  8156  300002                     	org	3145730
  8157  300002  19                 	db	25
  8158                           
  8159                           ;Config register CONFIG2H @ 0x300003
  8160                           ;	Watchdog Timer
  8161                           ;	WDT = OFF, WDT disabled (control is placed on the SWDTEN bit)
  8162                           ;	Watchdog Timer Postscale Select bits
  8163                           ;	WDTPS = 32768, 1:32768
  8164  300003                     	org	3145731
  8165  300003  1E                 	db	30
  8166                           
  8167                           ;Config register CONFIG3L @ 0x300004
  8168                           ;	Processor Data Memory Mode Select bits
  8169                           ;	MODE = MC, Microcontroller mode
  8170                           ;	Address Bus Width Select bits
  8171                           ;	ADDRBW = ADDR20BIT, 20-bit Address Bus
  8172                           ;	Data Bus Width Select bit
  8173                           ;	DATABW = DATA16BIT, 16-bit External Bus mode
  8174                           ;	External Bus Data Wait Enable bit
  8175                           ;	WAIT = OFF, Wait selections are unavailable for table reads and table writes
  8176  300004                     	org	3145732
  8177  300004  F3                 	db	243
  8178                           
  8179                           ;Config register CONFIG3H @ 0x300005
  8180                           ;	CCP2 MUX bit
  8181                           ;	CCP2MX = PORTC, ECCP2 input/output is multiplexed with RC1
  8182                           ;	ECCP MUX bit
  8183                           ;	ECCPMX = PORTE, ECCP1/3 (P1B/P1C/P3B/P3C) are multiplexed onto RE6, RE5, RE4 and RE3 r
      +                          espectively
  8184                           ;	Low-Power Timer1 Oscillator Enable bit
  8185                           ;	LPT1OSC = OFF, Timer1 configured for higher power operation
  8186                           ;	MCLR Pin Enable bit
  8187                           ;	MCLRE = ON, MCLR pin enabled; RG5 input pin disabled
  8188  300005                     	org	3145733
  8189  300005  83                 	db	131
  8190                           
  8191                           ;Config register CONFIG4L @ 0x300006
  8192                           ;	Stack Full/Underflow Reset Enable bit
  8193                           ;	STVREN = ON, Stack full/underflow will cause Reset
  8194                           ;	Single-Supply ICSP Enable bit
  8195                           ;	LVP = OFF, Single-Supply ICSP disabled
  8196                           ;	Boot Block Size Select bits
  8197                           ;	BBSIZ = BB2K, 1K word (2 Kbytes) Boot Block size
  8198                           ;	Extended Instruction Set Enable bit
  8199                           ;	XINST = OFF, Instruction set extension and Indexed Addressing mode disabled (Legacy mo
      +                          de)
  8200                           ;	Background Debugger Enable bit
  8201                           ;	DEBUG = ON, Background debugger enabled, RB6 and RB7 are dedicated to In-Circuit Debug
  8202  300006                     	org	3145734
  8203  300006  01                 	db	1
  8204                           
  8205                           ; Padding undefined space
  8206  300007                     	org	3145735
  8207  300007  FF                 	db	255
  8208                           
  8209                           ;Config register CONFIG5L @ 0x300008
  8210                           ;	Code Protection bit Block 0
  8211                           ;	CP0 = OFF, Block 0 (000800, 001000 or 002000-003FFFh) not code-protected
  8212                           ;	Code Protection bit Block 1
  8213                           ;	CP1 = OFF, Block 1 (004000-007FFFh) not code-protected
  8214                           ;	Code Protection bit Block 2
  8215                           ;	CP2 = OFF, Block 2 (008000-00BFFFh) not code-protected
  8216                           ;	Code Protection bit Block 3
  8217                           ;	CP3 = OFF, Block 3 (00C000-00FFFFh) not code-protected
  8218                           ;	Code Protection bit Block 4
  8219                           ;	CP4 = OFF, Block 4 (010000-013FFFh) not code-protected
  8220                           ;	Code Protection bit Block 5
  8221                           ;	CP5 = OFF, Block 5 (014000-017FFFh) not code-protected
  8222                           ;	Code Protection bit Block 6
  8223                           ;	CP6 = OFF, Block 6 (01BFFF-018000h) not code-protected
  8224                           ;	Code Protection bit Block 7
  8225                           ;	CP7 = OFF, Block 7 (01C000-01FFFFh) not code-protected
  8226  300008                     	org	3145736
  8227  300008  FF                 	db	255
  8228                           
  8229                           ;Config register CONFIG5H @ 0x300009
  8230                           ;	Boot Block Code Protection bit
  8231                           ;	CPB = OFF, Boot Block (000000-0007FFh) not code-protected
  8232                           ;	Data EEPROM Code Protection bit
  8233                           ;	CPD = OFF, Data EEPROM not code-protected
  8234  300009                     	org	3145737
  8235  300009  C0                 	db	192
  8236                           
  8237                           ;Config register CONFIG6L @ 0x30000A
  8238                           ;	Write Protection bit Block 0
  8239                           ;	WRT0 = OFF, Block 0 (000800, 001000 or 002000-003FFFh) not write-protected
  8240                           ;	Write Protection bit Block 1
  8241                           ;	WRT1 = OFF, Block 1 (004000-007FFFh) not write-protected
  8242                           ;	Write Protection bit Block 2
  8243                           ;	WRT2 = OFF, Block 2 (008000-00BFFFh) not write-protected
  8244                           ;	Write Protection bit Block 3
  8245                           ;	WRT3 = OFF, Block 3 (00C000-00FFFFh) not write-protected
  8246                           ;	Write Protection bit Block 4
  8247                           ;	WRT4 = OFF, Block 4 (010000-013FFFh) not write-protected
  8248                           ;	Write Protection bit Block 5
  8249                           ;	WRT5 = OFF, Block 5 (014000-017FFFh) not write-protected
  8250                           ;	Write Protection bit Block 6
  8251                           ;	WRT6 = OFF, Block 6 (01BFFF-018000h) not write-protected
  8252                           ;	Write Protection bit Block 7
  8253                           ;	WRT7 = OFF, Block 7 (01C000-01FFFFh) not write-protected
  8254  30000A                     	org	3145738
  8255  30000A  FF                 	db	255
  8256                           
  8257                           ;Config register CONFIG6H @ 0x30000B
  8258                           ;	Configuration Register Write Protection bit
  8259                           ;	WRTC = OFF, Configuration registers (300000-3000FFh) not write-protected
  8260                           ;	Boot Block Write Protection bit
  8261                           ;	WRTB = OFF, Boot Block (000000-007FFF, 000FFF or 001FFFh) not write-protected
  8262                           ;	Data EEPROM Write Protection bit
  8263                           ;	WRTD = OFF, Data EEPROM not write-protected
  8264  30000B                     	org	3145739
  8265  30000B  E0                 	db	224
  8266                           
  8267                           ;Config register CONFIG7L @ 0x30000C
  8268                           ;	Table Read Protection bit Block 0
  8269                           ;	EBTR0 = OFF, Block 0 (000800, 001000 or 002000-003FFFh) not protected from table reads
      +                           executed in other blocks
  8270                           ;	Table Read Protection bit Block 1
  8271                           ;	EBTR1 = OFF, Block 1 (004000-007FFFh) not protected from table reads executed in other
      +                           blocks
  8272                           ;	Table Read Protection bit Block 2
  8273                           ;	EBTR2 = OFF, Block 2 (008000-00BFFFh) not protected from table reads executed in other
      +                           blocks
  8274                           ;	Table Read Protection bit Block 3
  8275                           ;	EBTR3 = OFF, Block 3 (00C000-00FFFFh) not protected from table reads executed in other
      +                           blocks
  8276                           ;	Table Read Protection bit Block 4
  8277                           ;	EBTR4 = OFF, Block 4 (010000-013FFFh) not protected from table reads executed in other
      +                           blocks
  8278                           ;	Table Read Protection bit Block 5
  8279                           ;	EBTR5 = OFF, Block 5 (014000-017FFFh) not protected from table reads executed in other
      +                           blocks
  8280                           ;	Table Read Protection bit Block 6
  8281                           ;	EBTR6 = OFF, Block 6 (018000-01BFFFh) not protected from table reads executed in other
      +                           blocks
  8282                           ;	Table Read Protection bit Block 7
  8283                           ;	EBTR7 = OFF, Block 7 (01C000-01FFFFh) not protected from table reads executed in other
      +                           blocks
  8284  30000C                     	org	3145740
  8285  30000C  FF                 	db	255
  8286                           
  8287                           ;Config register CONFIG7H @ 0x30000D
  8288                           ;	Boot Block Table Read Protection bit
  8289                           ;	EBTRB = OFF, Boot Block (000000-007FFF, 000FFF or 001FFFh) not protected from table re
      +                          ads executed in other blocks
  8290  30000D                     	org	3145741
  8291  30000D  40                 	db	64
  8292                           tosu	equ	0xFFF
  8293                           tosh	equ	0xFFE
  8294                           tosl	equ	0xFFD
  8295                           stkptr	equ	0xFFC
  8296                           pclatu	equ	0xFFB
  8297                           pclath	equ	0xFFA
  8298                           pcl	equ	0xFF9
  8299                           tblptru	equ	0xFF8
  8300                           tblptrh	equ	0xFF7
  8301                           tblptrl	equ	0xFF6
  8302                           tablat	equ	0xFF5
  8303                           prodh	equ	0xFF4
  8304                           prodl	equ	0xFF3
  8305                           indf0	equ	0xFEF
  8306                           postinc0	equ	0xFEE
  8307                           postdec0	equ	0xFED
  8308                           preinc0	equ	0xFEC
  8309                           plusw0	equ	0xFEB
  8310                           fsr0h	equ	0xFEA
  8311                           fsr0l	equ	0xFE9
  8312                           wreg	equ	0xFE8
  8313                           indf1	equ	0xFE7
  8314                           postinc1	equ	0xFE6
  8315                           postdec1	equ	0xFE5
  8316                           preinc1	equ	0xFE4
  8317                           plusw1	equ	0xFE3
  8318                           fsr1h	equ	0xFE2
  8319                           fsr1l	equ	0xFE1
  8320                           bsr	equ	0xFE0
  8321                           indf2	equ	0xFDF
  8322                           postinc2	equ	0xFDE
  8323                           postdec2	equ	0xFDD
  8324                           preinc2	equ	0xFDC
  8325                           plusw2	equ	0xFDB
  8326                           fsr2h	equ	0xFDA
  8327                           fsr2l	equ	0xFD9
  8328                           status	equ	0xFD8

Data Sizes:
    Strings     0
    Constant    0
    Data        56
    BSS         1952
    Persistent  0
    Stack       0

Auto Spaces:
    Space          Size  Autos    Used
    COMRAM           94     66      82
    BANK0           160      0     160
    BANK1           256     12     252
    BANK2           256     42     202
    BANK3           256      0     128
    BANK4           256      0       0
    BANK5           256      0       0
    BANK6           256      0       0
    BANK7           256      0       0
    BANK8           256      0       0
    BANK9           256      0       0
    BANK10          256      0       0
    BANK11          256      0       0
    BANK12          256      0       0
    BANK13          256      0       0
    BANK14          256      0       0
    BANK15           96      0       0

Pointer List with Targets:

    curr_out	PTR unsigned char  size(2) Largest target is 0
		 -> NULL(NULL[0]), 


Critical Paths under _main in COMRAM

    _send_packet->_pop_msg_queue
    _int_to_char->___awmod
    _send_empty_spaces_packet->___awmod
    _fill_outbuffer->_buf_push
    _read_packet->_execute_command
    _park_spot_to_int->___wmul
    _licence_to_int->___wmul
    _execute_command->_exit
    _reserve_the_lot->_push_msg_queue
    _park_the_car->_push_msg_queue
    _exit->_calculateFee
    _exit->_push_msg_queue
    _calculateFee->___awdiv
    _int_to_7segment->___awmod
    ___awmod->___awdiv
    _init_parking_lots->___wmul

Critical Paths under _high_priority_isr in COMRAM

    _receive_isr->i2_buf_push

Critical Paths under _main in BANK0

    None.

Critical Paths under _high_priority_isr in BANK0

    None.

Critical Paths under _main in BANK1

    _read_packet->_execute_command

Critical Paths under _high_priority_isr in BANK1

    None.

Critical Paths under _main in BANK2

    _main->_int_to_7segment

Critical Paths under _high_priority_isr in BANK2

    None.

Critical Paths under _main in BANK3

    None.

Critical Paths under _high_priority_isr in BANK3

    None.

Critical Paths under _main in BANK4

    None.

Critical Paths under _high_priority_isr in BANK4

    None.

Critical Paths under _main in BANK5

    None.

Critical Paths under _high_priority_isr in BANK5

    None.

Critical Paths under _main in BANK6

    None.

Critical Paths under _high_priority_isr in BANK6

    None.

Critical Paths under _main in BANK7

    None.

Critical Paths under _high_priority_isr in BANK7

    None.

Critical Paths under _main in BANK8

    None.

Critical Paths under _high_priority_isr in BANK8

    None.

Critical Paths under _main in BANK9

    None.

Critical Paths under _high_priority_isr in BANK9

    None.

Critical Paths under _main in BANK10

    None.

Critical Paths under _high_priority_isr in BANK10

    None.

Critical Paths under _main in BANK11

    None.

Critical Paths under _high_priority_isr in BANK11

    None.

Critical Paths under _main in BANK12

    None.

Critical Paths under _high_priority_isr in BANK12

    None.

Critical Paths under _main in BANK13

    None.

Critical Paths under _high_priority_isr in BANK13

    None.

Critical Paths under _main in BANK14

    None.

Critical Paths under _high_priority_isr in BANK14

    None.

Critical Paths under _main in BANK15

    None.

Critical Paths under _high_priority_isr in BANK15

    None.

Call Graph Tables:

 ---------------------------------------------------------------------------------
 (Depth) Function   	        Calls       Base Space   Used Autos Params    Refs
 ---------------------------------------------------------------------------------
 (0) _main                                                 6     6      0  128298
                                              6 BANK1      6     6      0
                           _init_adc
                  _init_parking_lots
                         _init_ports
                        _init_serial
                 _init_timer_and_pie
                    _int_to_7segment
                     _level_to_index
                        _output_task
                        _packet_task
                        _read_packet
           _send_empty_spaces_packet
                        _send_packet
                      _set_digit_pin
 ---------------------------------------------------------------------------------
 (1) _set_digit_pin                                        2     2      0       0
                                             12 COMRAM     2     2      0
 ---------------------------------------------------------------------------------
 (1) _send_packet                                         10    10      0   10634
                                             38 COMRAM    10    10      0
                            ___awdiv
                            ___awmod
                     _fill_outbuffer
                        _int_to_char
                      _pop_msg_queue
 ---------------------------------------------------------------------------------
 (2) _pop_msg_queue                                       26    18      8      68
                                             12 COMRAM    26    18      8
 ---------------------------------------------------------------------------------
 (2) _int_to_char                                          4     0      4    5620
                                             26 COMRAM     4     0      4
                            ___awdiv
                            ___awmod
 ---------------------------------------------------------------------------------
 (1) _send_empty_spaces_packet                             0     0      0    4290
                            ___awdiv
                            ___awmod
                     _fill_outbuffer
 ---------------------------------------------------------------------------------
 (2) _fill_outbuffer                                       7     7      0     712
                                             16 COMRAM     7     7      0
                           _buf_push
                       _disable_rxtx
                        _enable_rxtx
 ---------------------------------------------------------------------------------
 (3) _buf_push                                             4     3      1     545
                                             12 COMRAM     4     3      1
 ---------------------------------------------------------------------------------
 (1) _read_packet                                          0     0      0   91370
                    _execute_command
                     _licence_to_int
                   _park_spot_to_int
 ---------------------------------------------------------------------------------
 (2) _park_spot_to_int                                     6     5      1   16224
                                             18 COMRAM     6     5      1
                             ___wmul
 ---------------------------------------------------------------------------------
 (2) _licence_to_int                                       7     5      2   16705
                                             18 COMRAM     7     5      2
                             ___wmul
 ---------------------------------------------------------------------------------
 (2) _execute_command                                      7     3      4   58441
                                             65 COMRAM     1     1      0
                                              0 BANK1      6     2      4
                               _exit
                       _park_the_car
                    _reserve_the_lot
 ---------------------------------------------------------------------------------
 (3) _reserve_the_lot                                     18    14      4   17854
                                             24 COMRAM    18    14      4
                             ___wmul
                     _push_msg_queue
 ---------------------------------------------------------------------------------
 (3) _park_the_car                                        35    33      2   18680
                                             24 COMRAM    32    30      2
                             ___wmul
                     _level_to_index
                     _push_car_queue
                     _push_msg_queue
 ---------------------------------------------------------------------------------
 (4) _push_car_queue                                       4     2      2     121
                                             12 COMRAM     4     2      2
 ---------------------------------------------------------------------------------
 (3) _exit                                                41    39      2   21150
                                             24 COMRAM    41    39      2
                             ___wmul
                       _calculateFee
                     _level_to_index
                      _pop_car_queue
                     _push_msg_queue
 ---------------------------------------------------------------------------------
 (4) _push_msg_queue                                      12     4      8     636
                                             12 COMRAM    12     4      8
 ---------------------------------------------------------------------------------
 (4) _pop_car_queue                                        6     4      2      34
                                             12 COMRAM     6     4      2
 ---------------------------------------------------------------------------------
 (4) _level_to_index                                       5     3      2      31
                                             12 COMRAM     5     3      2
 ---------------------------------------------------------------------------------
 (4) _calculateFee                                         4     2      2    2040
                                             20 COMRAM     4     2      2
                            ___awdiv
 ---------------------------------------------------------------------------------
 (1) _packet_task                                          3     3      0     663
                                             12 COMRAM     3     3      0
                        _buf_isempty
                            _buf_pop
                       _disable_rxtx
                        _enable_rxtx
 ---------------------------------------------------------------------------------
 (1) _output_task                                          0     0      0     533
                        _buf_isempty
                            _buf_pop
                       _disable_rxtx
                        _enable_rxtx
 ---------------------------------------------------------------------------------
 (3) _enable_rxtx                                          0     0      0       0
 ---------------------------------------------------------------------------------
 (3) _disable_rxtx                                         0     0      0       0
 ---------------------------------------------------------------------------------
 (8) _buf_pop                                              4     4      0     409
                        _buf_isempty
 ---------------------------------------------------------------------------------
 (9) _buf_isempty                                          3     3      0     124
 ---------------------------------------------------------------------------------
 (1) _int_to_7segment                                     46    44      2    4132
                                             26 COMRAM     4     2      2
                                              0 BANK2     42    42      0
                            ___awdiv
                            ___awmod
 ---------------------------------------------------------------------------------
 (3) ___awmod                                              6     2      4    1693
                                             20 COMRAM     6     2      4
                            ___awdiv (ARG)
 ---------------------------------------------------------------------------------
 (3) ___awdiv                                              8     4      4    1885
                                             12 COMRAM     8     4      4
 ---------------------------------------------------------------------------------
 (1) _init_timer_and_pie                                   1     1      0       3
                                             12 COMRAM     1     1      0
 ---------------------------------------------------------------------------------
 (1) _init_serial                                          0     0      0       0
 ---------------------------------------------------------------------------------
 (1) _init_ports                                           0     0      0       0
 ---------------------------------------------------------------------------------
 (1) _init_parking_lots                                    2     2      0   16388
                                             18 COMRAM     2     2      0
                             ___wmul
 ---------------------------------------------------------------------------------
 (3) ___wmul                                               6     2      4   16072
                                             12 COMRAM     6     2      4
 ---------------------------------------------------------------------------------
 (1) _init_adc                                             0     0      0       0
 ---------------------------------------------------------------------------------
 Estimated maximum stack depth 9
 ---------------------------------------------------------------------------------
 (Depth) Function   	        Calls       Base Space   Used Autos Params    Refs
 ---------------------------------------------------------------------------------
 (6) _high_priority_isr                                    5     5      0     844
                                              7 COMRAM     5     5      0
                            _adc_isr
                        _receive_isr
                       _transmit_isr
 ---------------------------------------------------------------------------------
 (7) _transmit_isr                                         0     0      0     533
                        _buf_isempty
                            _buf_pop
 ---------------------------------------------------------------------------------
 (8) _buf_pop                                              4     4      0     409
                        _buf_isempty
 ---------------------------------------------------------------------------------
 (9) _buf_isempty                                          3     3      0     124
 ---------------------------------------------------------------------------------
 (7) _receive_isr                                          0     0      0     246
                         i2_buf_push
 ---------------------------------------------------------------------------------
 (8) i2_buf_push                                           4     3      1     246
                                              0 COMRAM     4     3      1
 ---------------------------------------------------------------------------------
 (7) _adc_isr                                              0     0      0       0
 ---------------------------------------------------------------------------------
 Estimated maximum stack depth 9
 ---------------------------------------------------------------------------------

 Call Graph Graphs:

 _main (ROOT)
   _init_adc
   _init_parking_lots
     ___wmul
   _init_ports
   _init_serial
   _init_timer_and_pie
   _int_to_7segment
     ___awdiv
     ___awmod
       ___awdiv (ARG)
   _level_to_index
   _output_task
     _buf_isempty
     _buf_pop
       _buf_isempty
     _disable_rxtx
     _enable_rxtx
   _packet_task
     _buf_isempty
     _buf_pop
       _buf_isempty
     _disable_rxtx
     _enable_rxtx
   _read_packet
     _execute_command
       _exit
         ___wmul
         _calculateFee
           ___awdiv
         _level_to_index
         _pop_car_queue
         _push_msg_queue
       _park_the_car
         ___wmul
         _level_to_index
         _push_car_queue
         _push_msg_queue
       _reserve_the_lot
         ___wmul
         _push_msg_queue
     _licence_to_int
       ___wmul
     _park_spot_to_int
       ___wmul
   _send_empty_spaces_packet
     ___awdiv
     ___awmod
       ___awdiv (ARG)
     _fill_outbuffer
       _buf_push
       _disable_rxtx
       _enable_rxtx
   _send_packet
     ___awdiv
     ___awmod
       ___awdiv (ARG)
     _fill_outbuffer
       _buf_push
       _disable_rxtx
       _enable_rxtx
     _int_to_char
       ___awdiv
       ___awmod
         ___awdiv (ARG)
     _pop_msg_queue
   _set_digit_pin

 _high_priority_isr (ROOT)
   _adc_isr
   _receive_isr
     i2_buf_push
   _transmit_isr
     _buf_isempty
     _buf_pop
       _buf_isempty

 Address spaces:
Name               Size   Autos  Total    Cost      Usage
BIGRAM             F5F      0     518      37       33.1%
EEDATA             400      0       0       0        0.0%
BITBANK14          100      0       0      33        0.0%
BANK14             100      0       0      34        0.0%
BITBANK13          100      0       0      30        0.0%
BANK13             100      0       0      31        0.0%
BITBANK12          100      0       0      28        0.0%
BANK12             100      0       0      29        0.0%
BITBANK11          100      0       0      26        0.0%
BANK11             100      0       0      27        0.0%
BITBANK10          100      0       0      24        0.0%
BANK10             100      0       0      25        0.0%
BITBANK9           100      0       0      22        0.0%
BANK9              100      0       0      23        0.0%
BITBANK8           100      0       0      20        0.0%
BANK8              100      0       0      21        0.0%
BITBANK7           100      0       0      18        0.0%
BANK7              100      0       0      19        0.0%
BITBANK6           100      0       0      16        0.0%
BANK6              100      0       0      17        0.0%
BITBANK5           100      0       0      14        0.0%
BANK5              100      0       0      15        0.0%
BITBANK4           100      0       0      12        0.0%
BANK4              100      0       0      13        0.0%
BITBANK3           100      0       0      10        0.0%
BANK3              100      0      80      11       50.0%
BITBANK2           100      0       0       8        0.0%
BANK2              100     2A      CA       9       78.9%
BITBANK1           100      0       0       6        0.0%
BANK1              100      C      FC       7       98.4%
BITBANK0            A0      0       0       4        0.0%
BANK0               A0      0      A0       5      100.0%
BITBANK15           60      0       0      35        0.0%
BANK15              60      0       0      36        0.0%
BITCOMRAM           5E      0       0       0        0.0%
COMRAM              5E     42      52       1       87.2%
BITSFR               0      0       0     200        0.0%
SFR                  0      0       0     200        0.0%
STACK                0      0       0       2        0.0%
NULL                 0      0       0       0        0.0%
ABS                  0      0     338      32        0.0%
DATA                 0      0     850       3        0.0%
CODE                 0      0       0       0        0.0%


Microchip Technology PIC18 Macro Assembler V2.30 build 20200825195618 
Symbol Table                                                                                   Wed May 28 00:28:00 2025

              __size_of_push_msg_queue 0074                         ??_disable_rxtx 000D  
                      _reserve_the_lot 0D3E                            _slot_number 00A2  
                         ___awdiv@sign 0012                    ___wmul@multiplicand 000F  
                       _update_display 00BA                        ?_fill_outbuffer 0001  
                      ??_pop_msg_queue 0015                                    l220 298E  
                                  l302 2680                                    l225 1B4C  
                                  l217 29A8                                    l153 29E4  
                                  l401 2610                                    l313 273A  
                                  l305 27E0                                    l323 2240  
                                  l228 2926                                    l156 29DE  
                                  l317 259E                                    l309 282E  
                                  l255 1D98                                    l343 0CEA  
                                  l175 23CE                                    l417 1EA0  
                                  l329 0D3C                                    l361 12AA  
                                  l370 0732                                    l178 240A  
                                  l426 252A                                    l442 1792  
                                  l371 0148                                    l259 19E2  
                                  l700 219C                                    l364 28FC  
                                  l284 1336                                    l429 29B6  
                                  l390 20EC                                    l278 2372  
                                  l295 15EC                                    l456 2974  
                                  l393 289C                                    l299 2866  
                                  l396 2792                                    l687 203C  
                         ___awmod@sign 001A                                    wreg 000FE8  
                           _TXSTA1bits 000FAC                            buf_push@buf 000D  
                          _total_money 00B6                       park_the_car@flag 001D  
                           i2_buf_push 240C                                   l4001 20F2  
                                 l4011 2122                                   l4003 2100  
                                 l4021 2168                                   l4013 2134  
                                 l4005 2108                                   l4031 2194  
                                 l4023 2170                                   l4015 213C  
                                 l4007 210C                                   l4111 219E  
                                 l4025 2176                                   l4017 2144  
                                 l4009 211A                                   l4201 1CE6  
                                 l4105 2342                                   l4121 2214  
                                 l4113 21B0                                   l4019 2152  
                                 l4027 217C                                   l4211 1D40  
                                 l4203 1CF4                                   l4107 2352  
                                 l4123 2228                                   l4115 21CA  
                                 l4141 2990                                   l3501 1FD4  
                                 l4029 218C                                   l4213 1D46  
                                 l4205 1D06                                   l4221 1D60  
                                 l4061 2662                                   l4109 2356  
                                 l4125 222E                                   l4301 1310  
                                 l4143 2976                                   l3511 200E  
                                 l3503 1FDC                                   l4215 1D56  
                                 l4207 1D28                                   l4223 1D94  
                                 l4071 208C                                   l4063 2040  
                                 l4055 2614                                   l4231 1814  
                                 l4119 21E0                                   l4311 1366  
                                 l4303 131A                                   l4153 19EC  
                                 l4145 2986                                   l4161 2902  
                                 l3521 2034                                   l3513 2010  
                                 l3505 1FEA                                   l4401 1DF6  
                                 l4217 1D5A                                   l4209 1D30  
                                 l4073 2098                                   l4065 2052  
                                 l4057 261E                                   l4081 27A0  
                                 l4241 1860                                   l4129 2868  
                                 l4321 1406                                   l4313 138E  
                                 l4305 132C                                   l4155 1B2C  
                                 l4147 19E4                                   l4171 2914  
                                 l4163 2904                                   l3515 2016  
                                 l3507 1FF0                                   l4403 1DFA  
                                 l3531 2816                                   l4075 20AA  
                                 l4067 205E                                   l4059 2640  
                                 l4083 27C2                                   l4251 18A8  
                                 l4235 1828                                   l3611 23AC  
                                 l4091 2302                                   l4331 144E  
                                 l4323 140A                                   l4315 139E  
                                 l4307 133A                                   l4157 1B30  
                                 l4181 2922                                   l4173 291A  
                                 l4165 290E                                   l3509 2006  
                                 l3517 201C                                   l4413 1E3A  
                                 l4405 1E16                                   l3541 2718  
                                 l3533 282A                                   l3525 27E2  
                                 l3701 0AEC                                   l3621 0780  
                                 l4077 20D8                                   l4069 2070  
                                 l4261 18EE                                   l4237 183A  
                                 l4245 1870                                   l3613 23FA  
                                 l4093 2306                                   l4085 22DC  
                                 l4341 14C6                                   l4333 145E  
                                 l4325 1426                                   l4317 13BA  
                                 l4309 134A                                   l4421 24A8  
                                 l4501 15FA                                   l4183 2924  
                                 l4175 291C                                   l4167 2910  
                                 l4159 28FE                                   l3519 202C  
                                 l4415 1E80                                   l4407 1E30  
                                 l4191 1CA4                                   l3543 272C  
                                 l3535 26E2                                   l3711 0BBA  
                                 l3703 0B20                                   l3631 0828  
                                 l3623 07CC                                   l4079 2796  
                                 l4271 194C                                   l4263 18FC  
                                 l4247 1884                                   l4255 18B8  
                                 l4239 184E                                   l3607 2376  
                                 l4087 22E8                                   l4095 230A  
                                 l4351 154A                                   l4343 14E0  
                                 l4335 1478                                   l4327 1442  
                                 l4319 13EA                                   l4431 24C4  
                                 l4423 24AC                                   l4511 161C  
                                 l4503 15FE                                   l4177 291E  
                                 l4169 2912                                   l3481 1F7A  
                                 l4417 1E84                                   l4193 1CAC  
                                 l4185 1C86                                   l3561 25A6  
                                 l3545 2732                                   l3537 26F6  
                                 l3553 255E                                   l3529 27FC  
                                 l3705 0B54                                   l3713 0BC2  
                                 l3641 0894                                   l3633 0830  
                                 l3625 0808                                   l3617 0734  
                                 l3801 10C6                                   l4281 19AA  
                                 l4273 195A                                   l4257 18CA  
                                 l4265 1916                                   l4249 1896  
                                 l3609 2386                                   l4097 2330  
                                 l4089 22EC                                   l4361 15A4  
                                 l4353 1564                                   l4345 1506  
                                 l4337 1492                                   l4329 1446  
                                 l4433 24CC                                   l4425 24B4  
                                 l4441 2514                                   l4521 1672  
                                 l4513 1620                                   l4505 1602  
                                 l4179 2920                                   l3491 1FA6  
                                 l3483 1F7E                                   l4195 1CBE  
                                 l4187 1C8A                                   l3539 26FE  
                                 l3555 2592                                   l3731 0CB4  
                                 l3715 0BC6                                   l3707 0BA4  
                                 l3643 08B4                                   l3627 080C  
                                 l3619 0748                                   l3811 1156  
                                 l4283 19B8                                   l4267 1928  
                                 l4275 1974                                   l4259 18DC  
                                 l4099 233A                                   l4355 157E  
                                 l4347 1516                                   l4339 14AC  
                                 l4291 12C8                                   l4435 24D0  
                                 l4427 24B8                                   l4419 24A4  
                                 l4531 169E                                   l4523 1676  
                                 l4515 1632                                   l4507 1606  
                                 l3493 1FAE                                   l3485 1F8C  
                                 l4381 285A                                   l4373 2830  
                                 l4197 1CCC                                   l3573 25CA  
                                 l3565 25B2                                   l3557 259A  
                                 l3549 252C                                   l3901 0250  
                                 l3741 0CFE                                   l3733 0CC2  
                                 l3725 0BFC                                   l3709 0BB2  
                                 l3717 0BE2                                   l3661 0992  
                                 l3653 08CC                                   l3629 0822  
                                 l3637 0872                                   l3813 117E  
                                 l4285 19C8                                   l4277 1986  
                                 l4269 193A                                   l4357 1598  
                                 l4349 1530                                   l4365 15AC  
                                 l4293 12DE                                   l4429 24C0  
                                 l4541 16F2                                   l4533 16B0  
                                 l4517 1650                                   l4525 1680  
                                 l4509 160A                                   l4447 29AA  
                                 l3591 2950                                   l3495 1FB2  
                                 l3487 1F94                                   l4383 2862  
                                 l4375 2834                                   l4199 1CD4  
                                 l3559 25A2                                   l3903 0278  
                                 l3911 02DC                                   l3743 0D02  
                                 l3735 0CC2                                   l3727 0C30  
                                 l3719 0BF4                                   l3671 09D4  
                                 l3663 099A                                   l3655 0900  
                                 l3647 08C4                                   l3639 0876  
                                 l3831 1262                                   l3815 1186  
                                 l3807 10EE                                   l3751 0D3E  
                                 l4279 1998                                   l4287 19DE  
                                 l4391 278E                                   l4359 159C  
                                 l4367 15E8                                   l4295 12E2  
                                 l4439 24D8                                   l4551 174A  
                                 l4543 1702                                   l4535 16B8  
                                 l4527 1694                                   l4519 166A  
                                 l3593 296C                                   l3497 1FBA  
                                 l3489 1F98                                   l4393 1D9A  
                                 l4377 284A                                   l3585 28D0  
                                 l3569 25BE                                   l3921 0374  
                                 l3913 0314                                   l3905 0284  
                                 l3745 0D18                                   l3729 0C64  
                                 l3737 0CCA                                   l3681 0A44  
                                 l3657 0934                                   l3665 09A2  
                                 l3833 126A                                   l3841 1280  
                                 l3817 11AE                                   l3809 1122  
                                 l3761 0DE2                                   l3753 0D4A  
                                 l4385 273C                                   l4297 12F4  
                                 l4289 12AC                                   l4561 17A4  
                                 l4553 175C                                   l4545 1714  
                                 l4537 16D0                                   l4529 169C  
                                 l3499 1FCC                                   l4395 1DAC  
                                 l4379 2858                                   l3587 28F0  
                                 l3579 25D6                                   l3931 0410  
                                 l3915 033C                                   l3923 03A0  
                                 l3907 0288                                   l3747 0D1E  
                                 l3739 0CCE                                   l3691 0AB6  
                                 l3683 0A94                                   l3667 09A6  
                                 l3659 0984                                   l3843 1288  
                                 l3835 126C                                   l3819 11EE  
                                 l3771 0E9E                                   l3763 0E0A  
                                 l3755 0D7E                                   l3827 1216  
                                 l4387 274E                                   l4299 12FE  
                                 l4571 17FC                                   l4563 17B8  
                                 l4555 176E                                   l4547 1726  
                                 l4539 16E0                                   l4397 1DB8  
                                 l3597 29E0                                   l3933 0438  
                                 l3925 03D8                                   l3917 0348  
                                 l3909 02B0                                   l3861 00B0  
                                 l3853 0012                                   l3685 0AA2  
                                 l3677 09DC                                   l3693 0AD2  
                                 l3669 09C2                                   l3845 1294  
                                 l3837 1276                                   l3781 0F5E  
                                 l3773 0ED2                                   l3765 0E4A  
                                 l3757 0DB2                                   l3829 1250  
                                 l4389 276A                                   l4573 1808  
                                 l4565 17C0                                   l4557 1780  
                                 l4549 1738                                   l4399 1DC6  
                                 l3599 29DA                                   l3951 04D4  
                                 l3943 049C                                   l3927 0400  
                                 l3935 0464                                   l3919 034C  
                                 l3871 00DE                                   l3863 00B8  
                                 l3855 001E                                   l3695 0AE4  
                                 l3687 0AAA                                   l3679 0A10  
                                 l3839 1278                                   l3791 0FFA  
                                 l3783 0F9E                                   l3775 0F06  
                                 l3767 0E6E                                   l3759 0DDA  
                                 l4567 17D2                                   l4559 1792  
                                 l4495 15EE                                   l3961 04F4  
                                 l3953 04DE                                   l3945 04A0  
                                 l3937 0468                                   l3929 040C  
                                 l3881 014C                                   l3873 00E4  
                                 l3865 00C0                                   l3857 0056  
                                 l3689 0AB2                                   l3793 102E  
                                 l3777 0F2E                                   l3769 0E96  
                                 l4569 17E2                                   l4497 15F2  
                                 l4691 25EA                                   l3971 055E  
                                 l3963 050A                                   l3955 04E0  
                                 l3947 04BE                                   l3939 0484  
                                 l3891 01B4                                   l3867 00C4  
                                 l3859 0088                                   l3795 1056  
                                 l3779 0F36                                   l4499 15F6  
                                 l4693 1D76                                   l3981 0640  
                                 l3973 057C                                   l3965 0526  
                                 l3957 04E8                                   l3949 04D2  
                                 l3893 01C0                                   l3869 00DA  
                                 l3877 0126                                   l3797 105E  
                                 l3789 0FC6                                   l4685 24EE  
                                 l3991 0708                                   l3983 0652  
                                 l3975 058E                                   l3967 054C  
                                 l3959 04F0                                   l3895 01C4  
                                 l3887 0154                                   l3879 012A  
                                 l3799 1086                                   l4687 15C2  
                                 l3993 0710                                   l3985 06A2  
                                 l3977 05DE                                   l3969 0558  
                                 l3897 01EC                                   l3889 018C  
                                 l4689 122A                                   l3995 0718  
                                 l3987 06B4                                   l3979 05F0  
                                 l3899 0218                                   l3997 071C  
                                 l3989 0704                                   l3999 20EE  
                                 u3000 202C                                   u3001 2028  
                                 u3010 27F8                                   u3011 27F4  
                                 u3020 26F6                                   u3021 26F2  
                                 u3101 0816                                   u3030 255A  
                                 u3110 0894                                   _LATB 000F8A  
                                 u3031 2556                                   u3111 0890  
                                 u3200 0AE4                                   u3120 08B4  
                                 u4000 1998                                   u3041 258A  
                                 u3201 0AE0                                   u3121 08B0  
                                 u4001 1994                                   u3210 0B20  
                                 u3130 0900                                   u4010 19AA  
                                 u3211 0B1C                                   u3131 08FC  
                                 u4011 19A6                                   u3220 0B54  
                                 u3140 0934                                   u3300 0DB2  
                                 u4020 12C8                                   _LATH 000F90  
                                 u4101 1DB2                                   u3221 0B50  
                                 u3141 0930                                   u3301 0DAE  
                                 u4021 12C4                                   u4110 1E30  
                                 u3230 0BE2                                   u3150 09C2  
                                 u3310 0ED2                                   u3070 2386  
                                 _LATJ 000F91                                   u4111 1E2C  
                                 u3231 0BDE                                   u3151 09BE  
                                 u3311 0ECE                                   u3071 2382  
                                 u4031 12D2                                   u4120 1EA0  
                                 u3400 0088                                   u3240 0BF4  
                                 u3160 09D4                                   u3320 0F06  
                                 u3080 23FA                                   u4040 12F4  
                                 u4121 1E9C                                   u3401 0084  
                                 u3241 0BF0                                   u3161 09D0  
                                 u3321 0F02                                   u3081 23F6  
                                 u4041 12F0                                   u3250 0C30  
                                 u3170 0A10                                   u3090 0780  
                                 u3330 0FFA                                   u4050 1310  
                                 u3411 00CE                                   u3251 0C2C  
                                 u3171 0A0C                                   u3091 077C  
                                 u3331 0FF6                                   u4051 130C  
                                 u3500 0526                                   u3420 0148  
                                 u3260 0C64                                   u3180 0A44  
                                 u3340 102E                                   u4060 132C  
                                 u4300 16E0                                   u3501 0522  
                                 u3421 0144                                   u3261 0C60  
                                 u3181 0A40                                   u3341 102A  
                                 u4061 1328                                   u4301 16DC  
                                 u4070 284A                                   u3510 054C  
                                 u3430 018C                                   u3270 0CEA  
                                 u3190 0AD2                                   u3350 1122  
                                 u4310 1702                                   u4071 2846  
                                 u3511 0548                                   u3431 0188  
                                 u3271 0CE6                                   u3191 0ACE  
                                 u3351 111E                                   u4311 16FE  
                                 u3600 2152                                   u4080 2858  
                                 u3520 058E                                   u3440 0250  
                                 u3360 1156                                   u4320 1714  
                                 u4240 161C                                   u3601 214E  
                                 u4081 2854                                   u3521 058A  
                                 u3441 024C                                   u3281 0D0C  
                                 u3361 1152                                   u4321 1710  
                                 u4241 1618                                   u3610 2168  
                                 u3530 05F0                                   u3450 0314  
                                 u3370 1262                                   u3290 0D7E  
                                 u4330 1738                                   u4250 1632  
                                 u3611 2164                                   u4091 1DA4  
                                 u3531 05EC                                   u3451 0310  
                                 u3371 125E                                   u3291 0D7A  
                                 u4331 1734                                   u4251 162E  
                                 u3620 218C                                   u3540 0652  
                                 u3460 03D8                                   u3700 20D8  
                                 u4340 174A                                   u4260 1650  
                                 u3621 2188                                   u3541 064E  
                                 u3461 03D4                                   u3381 129E  
                                 u3701 20D4                                   u4341 1746  
                                 u4261 164C                                   u3550 06B4  
                                 u3470 0484                                   u3390 0056  
                                 u3710 2330                                   u4350 176E  
                                 u4270 166A                                   u3551 06B0  
                                 u3471 0480                                   u3391 0052  
                                 u3711 232C                                   u4351 176A  
                                 u4271 1666                                   u3800 1CA0  
                                 u3480 0498                                   u3720 2372  
                                 u4360 1780                                   u4280 1694  
                                 u3801 1C9C                                   u3561 0726  
                                 u3481 0494                                   u3721 236E  
                                 u4361 177C                                   u4281 1690  
                                 u3570 2100                                   u3810 1CBE  
                                 u4370 17A4                                   u4290 16B0  
                                 u3571 20FC                                   u3811 1CBA  
                                 u3491 04FE                                   u3731 21A8  
                                 u4371 17A0                                   u4291 16AC  
                                 u3580 211A                                   u3820 1CE6  
                                 u3660 2052                                   u3900 1884  
                                 u3740 21CA                                   u4380 17B8  
                                 u3581 2116                                   u3821 1CE2  
                                 u3661 204E                                   u3901 1880  
                                 u3741 21C6                                   u4381 17B4  
                                 u2950 1F8C                                   u3590 2134  
                                 u3830 1D06                                   u3670 2070  
                                 u3910 1896                                   u4390 17D2  
                                 u2951 1F88                                   u3591 2130  
                                 u3831 1D02                                   u3671 206C  
                                 u3911 1892                                   u3751 21D4  
                                 u4391 17CE                                   u2960 1FA6  
                                 u3840 1D28                                   u3680 208C  
                                 u3920 18A8                                   u2961 1FA2  
                                 u3841 1D24                                   u3681 2088  
                                 u3921 18A4                                   u3761 220C  
                                 u2970 1FCC                                   u3850 1D56  
                                 u3690 20AA                                   u3930 18CA  
                                 u2971 1FC8                                   u3851 1D52  
                                 u3691 20A6                                   u3931 18C6  
                                 u3771 2238                                   u2980 1FEA  
                                 u3940 18DC                                   u3860 1824  
                                 u2981 1FE6                                   u3941 18D8  
                                 u3861 1820                                   u3790 1B4C  
                                 u2990 2006                                   u3950 18EE  
                                 u3870 183A                                   u3791 1B48  
                                 u2991 2002                                   u3951 18EA  
                                 u3871 1836                                   u3960 1928  
                                 u3880 184E                                   u3961 1924  
                                 u3881 184A                                   u3970 193A  
                                 u3890 1860                                   u3971 1936  
                                 u3891 185C                                   u3980 194C  
                                 u3981 1948                                   u3990 1986  
                                 u3991 1982                           _transmit_isr 2928  
                       _tail_car_queue 00AC                                   _head 0045  
                          _output_task 2830                                   _main 15EE  
                                 _exit 0012                                   _tail 0043  
                       send_packet@msg 0029                                   fsr1h 000FE2  
                                 fsr2h 000FDA                                   indf2 000FDF  
                                 fsr1l 000FE1                                   fsr2l 000FD9  
                                 btemp 0053                      _init_parking_lots 19E4  
                                 prodh 000FF4                                   prodl 000FF3  
                                 start 000E                       ??_level_to_index 000F  
                   ?_init_parking_lots 0001                        _execute_command 203E  
                         ?_packet_task 0001                           ___param_bank 000000  
                       _car_queue_size 00AA                      park_the_car@i_846 0031  
                    park_the_car@i_847 0033                      park_the_car@i_848 0035  
                    park_the_car@i_849 0037                       exit@entranceTime 001F  
                  ??_init_parking_lots 0013                           _BAUDCON1bits 000F7E  
                  _display_total_money 00FA                                  ?_main 0001  
                                ?_exit 0019                        __end_of___awdiv 203E  
                      __end_of___awmod 219E                                  _T0CON 000FD5  
                      ___awdiv@divisor 000F                        __end_of_adc_isr 29D4  
                                i2l214 1C72                                  i2l171 26E0  
                                i2l182 1F78                                  i2l175 2466  
                    ?_park_spot_to_int 0013                                  i2l185 1F3A  
                                i2l178 24A2                                  i2l194 294E  
                                i2l197 29D2                                  i2l189 29C4  
                      ___awdiv@counter 0011                                  _TMR0H 000FD7  
                                _TMR0L 000FD6                                  _PORTB 000F81  
                                _TRISB 000F93                                  _TRISH 000F99  
                                _TRISJ 000F9A                           ?_init_serial 0001  
                   ??_park_spot_to_int 0014                        __end_of_buf_pop 1F7A  
                         ?_read_packet 0001                                  _headX 009E  
                                _digit 00B8                                  _inbuf 0300  
                                _parkA 01B4                                  _parkB 0178  
                                _parkC 013C                                  _parkD 0100  
                                _level 0051                                  _tailX 009C  
              __size_of_licence_to_int 0070                                  exit@i 0033  
                                tablat 000FF5              __end_of_init_parking_lots 1B4E  
                         ?_int_to_char 001B                         _tail_msg_queue 00A6  
                                plusw0 000FEB                                  plusw1 000FE3  
                                plusw2 000FDB                                  ttemp5 0054  
                                ttemp6 0057                                  ttemp7 005B  
                                status 000FD8                                  wtemp8 0054  
             __size_of_int_to_7segment 0108                __end_of_reserve_the_lot 12AC  
                         ?_receive_isr 0001                          park_the_car@i 002F  
                       _push_car_queue 27E2                        __initialization 2242  
                       int_to_char@val 001B                     int_to_char@divider 001D  
                         __end_of_main 1814                           __end_of_exit 0734  
             level_to_index@level_char 0011                         buf_isempty@buf 0003  
                               ??_main 01F6                                 ??_exit 001B  
                        __activetblptr 000003                            i2buf_push@v 0004  
                               _ADCON0 000FC2                                 _ADCON1 000FC1  
                               _ADCON2 000FC0                           ?_send_packet 0001  
                 __size_of_enable_rxtx 0006                                 _ADRESH 000FC4  
                               _ADRESL 000FC3                   __end_of_disable_rxtx 29E6  
                     ___awdiv@dividend 000D                            ?i2_buf_push 0001  
                __size_of_calculateFee 002E                                 i2l4051 1F76  
                               i2l4043 1EC0                                 i2l4035 1EA4  
                               i2l4045 1ED0                                 i2l4037 1EBA  
                               i2l4133 2928                                 i2l4047 1EF6  
                               i2l4135 292A                                 i2l3601 2684  
                               i2l4049 1F66                                 i2l4137 2940  
                               i2l3603 26B2                                 i2l4139 2946  
                               i2l2911 240E                                 i2l2913 241E  
                               i2l2921 29B8                                 i2l2915 2444  
                               i2l2923 29BA                                 i2l4451 1B6E  
                               i2l2933 29C6                                 i2l2917 2492  
                               i2l4461 1B96                                 i2l4453 1B72  
                               i2l2935 29C8                                 i2l4471 1BCA  
                               i2l4463 1BA4                                 i2l4455 1B80  
                               i2l4473 1BE0                                 i2l4465 1BA6  
                               i2l4481 1C12                                 i2l4457 1B84  
                               i2l4449 1B60                                 i2l4491 1C64  
                               i2l4483 1C20                                 i2l4475 1BF4  
                               i2l4467 1BAE                                 i2l4459 1B92  
                               i2l4485 1C34                                 i2l4493 1C6C  
                               i2l4477 1BF8                                 i2l4469 1BC0  
                               i2l4487 1C44                                 i2l4479 1C0A  
                               _INTCON 000FF2                                 i2l4489 1C58  
                               _RCREG1 000FAE                __end_of_execute_command 20EE  
                               _SPBRG1 000FAF                                 _TXREG1 000FAD  
                          exit@msg_884 0029                 __end_of_push_car_queue 2830  
                       _push_msg_queue 252C                   __size_of_buf_isempty 0060  
                     __end_of_buf_push 240C                                 ___wmul 2950  
                            ??___awdiv 0011                              ??___awmod 0019  
              push_msg_queue@next_tail 0017                              ??_adc_isr 0001  
                     __end_of_init_adc 29B8                                 clear_0 228A  
                               clear_1 229C                                 clear_2 22A8  
                               clear_3 22B4                                 clear_4 22C0  
                               clear_5 22CC                       ___awdiv@quotient 0013  
                      ___awmod@divisor 0017                                 _pkt_id 00CB  
                      ___awmod@counter 0019                                 _outbuf 0200  
                            ??_buf_pop 0004                           __pdataCOMRAM 004D  
                         _calculateFee 28D0                       int_to_7segment@i 02C8  
           __end_of_init_timer_and_pie 2928               _send_empty_spaces_packet 273C  
                               tblptrh 000FF7                                 tblptrl 000FF6  
                               tblptru 000FF8                  __end_of_set_digit_pin 252C  
                park_the_car@carToPark 0019                   pop_car_queue@licence 0011  
          reserve_the_lot@carToReserve 0019                 execute_command@message 0042  
                        ?_park_the_car 0019             __size_of_init_parking_lots 016A  
                           __accesstop 0060                __end_of__initialization 22D2  
                      ?_push_car_queue 000D                          ___rparam_used 000001  
               __end_of_push_msg_queue 25A0                       ?_reserve_the_lot 0019  
                       __pcstackCOMRAM 0001                       ??_fill_outbuffer 0011  
                       _msg_queue_size 00A4  reserve_the_lot@successful_reservation 0021  
                         __pidataBANK0 289E                      ??_int_to_7segment 001D  
                 __size_of_packet_task 0114                    __size_ofi2_buf_push 0098  
                  fill_outbuffer@i_776 0016                         _head_car_queue 00AE  
                __end_of_pop_car_queue 273C                      exit@exit_car_slot 003E  
                 __size_of_init_serial 001A                  int_to_7segment@digits 02B4  
                       _licence_number 00C4                         _licence_to_int 2612  
                    _total_empty_slots 004D                         ??_park_the_car 001B  
                      licence_to_int@a 0019                        licence_to_int@b 0013  
                 __size_of_read_packet 01D0                        licence_to_int@c 0014  
                           __pbssBANK0 0060                             __pbssBANK1 0100  
                           __pbssBANK2 0200                             __pbssBANK3 0300  
                int_to_7segment@number 001B                           ?_output_task 0001  
                     ?_execute_command 01F0                    park_the_car@msg_850 0027  
                 __size_of_int_to_char 0036                        ?_push_msg_queue 000D  
                 __size_of_receive_isr 000E                           packet_task@v 000F  
                              ?___wmul 000D                      _high_priority_isr 0008  
                       _head_msg_queue 00A8                  __end_of_pop_msg_queue 2242  
                   ?_high_priority_isr 0001                  __size_of_disable_rxtx 0006  
               __end_of_licence_to_int 2682                                _SPBRGH1 000F7F  
                            ?_buf_push 000D                    ??_high_priority_isr 0008  
                 __size_of_send_packet 0342                              ?_init_adc 0001  
            __size_of_park_spot_to_int 004E                                __Hparam 0000  
                              __Lparam 0000                                ___awdiv 1F7A  
                              ___awmod 20EE                        __size_of___wmul 0026  
                              _adc_isr 29C6              __end_of_high_priority_isr 1C86  
                         _disable_rxtx 29E0                                __pcinit 2242  
                           _init_ports 2990                                __ramtop 1000  
                              __ptext0 15EE                                __ptext1 24A4  
                              __ptext2 12AC                                __ptext3 219E  
                              __ptext4 2868                                __ptext5 273C  
                              __ptext6 22DC                                __ptext7 2374  
                              __ptext8 1814                                __ptext9 2794  
                              _buf_pop 1EA2                              _T0CONbits 000FD5  
                     ___awmod@dividend 0015                        ?_licence_to_int 0013  
                              _pkt_out 0074                                _waiting 004F  
                         ??i2_buf_push 0002                             ??_buf_push 000E  
                       __pintcode_body 1B4E                   end_of_initialization 22D2  
                              exit@fee 001D                                exit@msg 0021  
                           ??_init_adc 000D                                int_func 1B4E  
                           _reserveArr 0780                                postdec1 000FE5  
                              postdec2 000FDD                                postinc0 000FEE  
                              postinc1 000FE6                                postinc2 000FDE  
           ??_send_empty_spaces_packet 001B                   __end_of_park_the_car 0D3E  
                           _wait_queue 0280                     __end_ofi2_buf_push 24A4  
              __size_of_level_to_index 0072                          ??_enable_rxtx 000D  
                     ??_push_car_queue 000F                             buf_pop@buf 0007  
                      _int_to_7segment 1D9A                      push_msg_queue@msg 000D  
                      park_the_car@msg 001F                     _init_timer_and_pie 28FE  
                        ??_buf_isempty 0001                   __size_of_output_task 0038  
                           main@result 01FA                        _general_counter 0049  
                  ?_init_timer_and_pie 0001             __size_of_high_priority_isr 1C7E  
                       __end_of___wmul 2976                            _adc_counter 00FE  
                        __pidataCOMRAM 29D4                            ?_init_ports 0001  
                  start_initialization 2242                   ??_init_timer_and_pie 000D  
                     ??_push_msg_queue 0015                          ?_transmit_isr 0001  
                  __end_of_enable_rxtx 29E0                     exit@exit_car_level 003D  
                     _park_spot_to_int 2794                          ??_packet_task 000D  
                       exit@popped_car 0031                               ??___wmul 0011  
               __size_of_set_digit_pin 0088                    __end_of_buf_isempty 26E2  
                         _empty_spaces 00EA                            __pdataBANK0 00CE  
             __size_of_reserve_the_lot 056E                         _read_adc_value 00B2  
                          __pbssBIGRAM 0380              execute_command@slotNumber 01F2  
                        ??_init_serial 000D                            __pbssCOMRAM 0043  
               int_to_7segment@numbers 02A0                          __pcstackBANK1 01F0  
                        __pcstackBANK2 02A0                   int_to_7segment@F5104 00CE  
                 int_to_7segment@F5106 0060              push_car_queue@licence_num 000D  
                        ??_read_packet 0043                __end_of_int_to_7segment 1EA2  
                            _adc_level 00C8                          i2buf_push@buf 0001  
                       ??_transmit_isr 0008                        fill_outbuffer@i 0014  
                        ??_int_to_char 001F                      __size_of_buf_push 0098  
                  __size_of_init_ports 001A                          ??_receive_isr 0005  
                    __size_of_init_adc 000E                 __size_of_pop_car_queue 005A  
                __size_of_park_the_car 060A                      park_spot_to_int@a 0018  
                    park_spot_to_int@b 0013                              __pintcode 0008  
             __size_of_execute_command 00B0                               ?___awdiv 000D  
                             ?___awmod 0015       __end_of_send_empty_spaces_packet 2794  
                             ?_adc_isr 0001                    __end_of_packet_task 1D9A  
                       _level_to_index 25A0                       ??_licence_to_int 0015  
                             ?_buf_pop 0001                     pop_msg_queue@F5058 00E2  
              __size_of_fill_outbuffer 0098                            _enable_rxtx 29DA  
                        ??_send_packet 0027                        _message_counter 00C0  
                        exit@carToExit 0019                          _set_digit_pin 24A4  
                   pop_msg_queue@empty 0017                    __end_of_init_serial 2990  
                         _park_the_car 0734                              _park_spot 00C2  
                  __end_of_read_packet 19E4                         ___wmul@product 0011  
                             _PIE1bits 000F9D                            _buf_isempty 2682  
                            _msg_queue 0380                 __size_of_pop_msg_queue 00A4  
                             i2u231_40 241E                               i2u231_41 241A  
                             i2u232_40 2492                               i2u232_41 248E  
                             i2u305_40 26DE                               i2u305_41 26D8  
                             i2u306_40 26E0                               i2u420_40 1C20  
                             i2u420_41 1C1C                               i2u421_40 1C34  
                             i2u413_40 1B6E                               i2u421_41 1C30  
                             i2u413_41 1B6A                               i2u422_40 1C44  
                             i2u414_40 1B80                               i2u422_41 1C40  
                             i2u414_41 1B7C                               i2u423_40 1C58  
                             i2u415_40 1B92                               i2u423_41 1C54  
                             i2u415_41 1B8E                               i2u416_40 1BA4  
                             i2u416_41 1BA0                               i2u417_40 1BC0  
                             i2u417_41 1BBC                    __end_of_int_to_char 289E  
                             _PIR1bits 000F9E                               i2u418_40 1BE0  
                             i2u418_41 1BDC                               i2u363_40 1EBA  
                             i2u419_40 1C0A                               i2u363_41 1EB6  
                             i2u419_41 1C06                               i2u364_40 1ED0  
                             i2u364_41 1ECC                               i2u365_40 1F66  
                             i2u365_41 1F62                               i2u378_40 2940  
                             i2u378_41 293C                              _pkt_valid 004B  
                             _RCONbits 000FD0                              _pkt_state 00CC  
           execute_command@plateNumber 01F0                 __end_of_level_to_index 2612  
                  __end_of_receive_isr 29C6                              _out_valid 00BC  
                           _ADCON0bits 000FC2                 high_priority_isr@portb 000C  
                    ___wmul@multiplier 000D                              buf_push@v 0010  
                        ?_calculateFee 0015                     reserve_the_lot@msg 0023  
                        _pop_car_queue 26E2                              main@empty 01F8  
                    ??_reserve_the_lot 001D                         ?_set_digit_pin 0001  
                     ?_int_to_7segment 001B                              copy_data0 2256  
                            copy_data1 2276                    __end_of_send_packet 15EE  
                            exit@i_881 0040                          exit@space_msg 0035  
                             __Hrparam 0000                               __Lrparam 0000  
                          _packet_task 1C86                        ?_level_to_index 000D  
                     __size_of___awdiv 00C4                   _empty_reserved_slots 00A0  
                     __size_of___awmod 00B0                   __end_of_transmit_isr 2950  
                     __size_of_adc_isr 000E                           ??_init_ports 000D  
             __end_of_park_spot_to_int 27E2                         ??_calculateFee 0017  
                    ??_execute_command 01F4                         ?_pop_car_queue 000D  
                     __size_of_buf_pop 00D8                          _pop_msg_queue 219E  
             calculateFee@entranceTime 0015                            _init_serial 2976  
                          _read_packet 1814                               __ptext10 2612  
                             __ptext11 203E                               __ptext20 1C86  
                             __ptext12 0D3E                               __ptext21 2830  
                             __ptext13 0734                               __ptext30 19E4  
                             __ptext22 29DA                               __ptext14 27E2  
                             __ptext31 2950                               __ptext23 29E0  
                             __ptext15 0012                               __ptext32 29AA  
                             __ptext24 1D9A                               __ptext16 252C  
                             __ptext25 20EE                               __ptext17 26E2  
                             __ptext34 2928                               __ptext26 1F7A  
                             __ptext18 25A0                               __ptext35 1EA2  
                             __ptext27 28FE                               __ptext19 28D0  
                             __ptext36 2682                               __ptext28 2976  
                             __ptext37 29B8                               __ptext29 2990  
                             __ptext38 240C                               __ptext39 29C6  
                             _buf_push 2374      __size_of_send_empty_spaces_packet 0058  
                             _finished 00C6              ?_send_empty_spaces_packet 0001  
                        ??_output_task 000D                            _int_to_char 2868  
                             _init_adc 29AA                               _curr_out 00B0  
                        __size_of_main 0226                          __size_of_exit 0722  
                       pop_msg_queue@m 001F                            _message_num 00BE  
                   __end_of_init_ports 29AA                           _pkt_bodysize 004C  
                          _receive_isr 29B8                     init_parking_lots@i 0013  
                             _pkt_body 0088                           _reserveIndex 0047  
                             _prev_rb4 0052                               int$flags 0053  
                             buf_pop@v 0006                 calculateFee@difference 0017  
                       _fill_outbuffer 22DC                         ?_pop_msg_queue 000D  
                           _INTCONbits 000FF2                        ??_set_digit_pin 000D  
          __size_of_init_timer_and_pie 002A                            _send_packet 12AC  
                             intlevel2 0000                             _RCSTA1bits 000FAB  
              __size_of_push_car_queue 004E                    __end_of_output_task 2868  
                        ?_disable_rxtx 0001                            _pkt_outsize 00CA  
               __end_of_fill_outbuffer 2374                        ??_pop_car_queue 000F  
                       _display_digits 00F2                           ?_enable_rxtx 0001  
            reserve_the_lot@slotNumber 001B                          _display_level 00B4  
                         ?_buf_isempty 0001                   __end_of_calculateFee 28FE  
                   _curr_message_state 00CD                         _check_adc_flag 00FC  
                __size_of_transmit_isr 0028  
